Microchip Technology Inc, v”¾

Tool Name:
  c:\program files (x86)\microchip\xc16\v1.20\bin\bin\..\bin/elf-ld.exe

Command:
  -p24FJ256GA106 \
  -o \
  dist/default/production/Mix.X.production.elf \
  -Lc:/program files (x86)/microchip/xc16/v1.20/bin/bin/.. \
  -Lc:/program files (x86)/microchip/xc16/v1.20/bin/bin/../../lib \
  -Lc:/program files (x86)/microchip/xc16/v1.20/bin/bin/../../lib/PIC24E \
  -Lc:/program files (x86)/microchip/xc16/v1.20/bin/bin/../../support/PIC24E/gld \
  -Lc:/program files (x86)/microchip/xc16/v1.20/bin/bin/../../lib/PIC24F \
  -Lc:/program files (x86)/microchip/xc16/v1.20/bin/bin/../../support/PIC24F/gld \
  -Lc:/program files (x86)/microchip/xc16/v1.20/bin/bin/../../lib/PIC24H \
  -Lc:/program files (x86)/microchip/xc16/v1.20/bin/bin/../../support/PIC24H/gld \
  -Lc:/program files (x86)/microchip/xc16/v1.20/bin/bin/../../lib/dsPIC30F \
  -Lc:/program files (x86)/microchip/xc16/v1.20/bin/bin/../../support/dsPIC30F/gld \
  -Lc:/program files (x86)/microchip/xc16/v1.20/bin/bin/../../lib/dsPIC33E \
  -Lc:/program files (x86)/microchip/xc16/v1.20/bin/bin/../../support/dsPIC33E/gld \
  -Lc:/program files (x86)/microchip/xc16/v1.20/bin/bin/../../lib/dsPIC33F \
  -Lc:/program files (x86)/microchip/xc16/v1.20/bin/bin/../../support/dsPIC33F/gld \
  build/default/production/_ext/1360937237/Adc.o \
  build/default/production/_ext/1360937237/Calendar.o \
  build/default/production/_ext/1360937237/Comm232.o \
  build/default/production/_ext/1360937237/DEBUG.o \
  build/default/production/_ext/1360937237/DS18B20.o \
  build/default/production/_ext/1360937237/In_Sensor.o \
  build/default/production/_ext/1360937237/In_Setup.o \
  build/default/production/_ext/1360937237/In_Sys.o \
  build/default/production/_ext/1360937237/Init.o \
  build/default/production/_ext/1360937237/Lcd.o \
  build/default/production/_ext/1360937237/Main.o \
  build/default/production/_ext/1360937237/MakeMsg.o \
  build/default/production/_ext/1360937237/Power.o \
  build/default/production/_ext/1360937237/R4571.o \
  build/default/production/_ext/1360937237/ReadPort.o \
  build/default/production/_ext/1360937237/Record.o \
  build/default/production/_ext/1360937237/Regist.o \
  build/default/production/_ext/1360937237/Reports.o \
  build/default/production/_ext/1360937237/SerialSensor.o \
  build/default/production/_ext/1360937237/Spi.o \
  build/default/production/_ext/1360937237/Sub.o \
  build/default/production/_ext/1360937237/TF_Ch376Func.o \
  build/default/production/_ext/1360937237/TF_FileSys.o \
  build/default/production/_ext/1360937237/TF_main.o \
  build/default/production/_ext/1360937237/Usb_disk.o \
  build/default/production/_ext/1360937237/cmBeidou.o \
  build/default/production/_ext/1360937237/cmGprs.o \
  build/default/production/_ext/1360937237/cmGsmSm.o \
  build/default/production/_ext/1360937237/DispKey.o \
  build/default/production/_ext/1360937237/cmWifi.o \
  build/default/production/ezbl_integration/ex_boot_uart.merge.o \
  --defsym=__MPLAB_BUILD=1 \
  -Tex_boot_uart.merge.gld.00 \
  --check-sections \
  --data-init \
  --pack-data \
  --handles \
  --isr \
  --no-gc-sections \
  --fill-upper=0 \
  --stackguard=16 \
  --library-path=../../../mcc30/support/PIC24F/gld \
  --library-path=. \
  --no-force-link \
  --smart-io \
  -Map=dist/default/production/Mix.X.production.map \
  --report-mem \
  -start-group \
  --library=fx-elf \
  --library=pic30-elf \
  --library=m-elf \
  --library=c-elf \
  -end-group \

Archive member included because of file (symbol)

c:/program files (x86)/microchip/xc16/v1.20/bin/bin/../../lib\libpic30-elf.a(crt0_standard.o)
                              (__resetPRI)
c:/program files (x86)/microchip/xc16/v1.20/bin/bin/../../lib\libpic30-elf.a(data_init_standard.o)
                              c:/program files (x86)/microchip/xc16/v1.20/bin/bin/../../lib\libpic30-elf.a(crt0_standard.o) (__data_init_standard)
c:/program files (x86)/microchip/xc16/v1.20/bin/bin/../../lib\libm-elf.a(addsf3.eo)
                              build/default/production/_ext/1360937237/In_Sensor.o (___subsf3)
c:/program files (x86)/microchip/xc16/v1.20/bin/bin/../../lib\libm-elf.a(feqltle.eo)
                              build/default/production/_ext/1360937237/Sub.o (___ltsf2)
c:/program files (x86)/microchip/xc16/v1.20/bin/bin/../../lib\libm-elf.a(fgtge.eo)
                              build/default/production/_ext/1360937237/In_Sensor.o (___gtsf2)
c:/program files (x86)/microchip/xc16/v1.20/bin/bin/../../lib\libm-elf.a(fixsfsi.eo)
                              build/default/production/_ext/1360937237/In_Sensor.o (_(float, int, long long, short, float, short, int))
c:/program files (x86)/microchip/xc16/v1.20/bin/bin/../../lib\libm-elf.a(fixunssfsi.eo)
                              build/default/production/_ext/1360937237/Adc.o (___fixunssfsi)
c:/program files (x86)/microchip/xc16/v1.20/bin/bin/../../lib\libm-elf.a(floatunsisf.eo)
                              build/default/production/_ext/1360937237/Adc.o (___floatunsisf)
c:/program files (x86)/microchip/xc16/v1.20/bin/bin/../../lib\libm-elf.a(fpack.eo)
                              c:/program files (x86)/microchip/xc16/v1.20/bin/bin/../../lib\libm-elf.a(addsf3.eo) (__fpack)
c:/program files (x86)/microchip/xc16/v1.20/bin/bin/../../lib\libm-elf.a(funpack.eo)
                              c:/program files (x86)/microchip/xc16/v1.20/bin/bin/../../lib\libm-elf.a(fixsfsi.eo) (__funpack)
c:/program files (x86)/microchip/xc16/v1.20/bin/bin/../../lib\libm-elf.a(funpack2.eo)
                              c:/program files (x86)/microchip/xc16/v1.20/bin/bin/../../lib\libm-elf.a(addsf3.eo) (__funpack2)
c:/program files (x86)/microchip/xc16/v1.20/bin/bin/../../lib\libm-elf.a(futil.eo)
                              c:/program files (x86)/microchip/xc16/v1.20/bin/bin/../../lib\libm-elf.a(addsf3.eo) (__fPropagateNaN)
c:/program files (x86)/microchip/xc16/v1.20/bin/bin/../../lib\libm-elf.a(modsi3.eo)
                              build/default/production/_ext/1360937237/TF_main.o (___modsi3)
c:/program files (x86)/microchip/xc16/v1.20/bin/bin/../../lib\libm-elf.a(mulsf3.eo)
                              build/default/production/_ext/1360937237/Adc.o (___mulsf3)
c:/program files (x86)/microchip/xc16/v1.20/bin/bin/../../lib\libm-elf.a(umodsi3.eo)
                              c:/program files (x86)/microchip/xc16/v1.20/bin/bin/../../lib\libm-elf.a(modsi3.eo) (___umodsi3)
c:/program files (x86)/microchip/xc16/v1.20/bin/bin/../../lib\libm-elf.a(fcompare.eo)
                              c:/program files (x86)/microchip/xc16/v1.20/bin/bin/../../lib\libm-elf.a(feqltle.eo) (__fcompare)
c:/program files (x86)/microchip/xc16/v1.20/bin/bin/../../lib\libm-elf.a(floatundisf.eo)
                              c:/program files (x86)/microchip/xc16/v1.20/bin/bin/../../lib\libm-elf.a(floatunsisf.eo) (___floatundisf)
c:/program files (x86)/microchip/xc16/v1.20/bin/bin/../../lib\libc-elf.a(atof.eo)
                              build/default/production/_ext/1360937237/In_Sensor.o (_atof)
c:/program files (x86)/microchip/xc16/v1.20/bin/bin/../../lib\libc-elf.a(atoi.eo)
                              build/default/production/_ext/1360937237/Sub.o (_atoi)
c:/program files (x86)/microchip/xc16/v1.20/bin/bin/../../lib\libc-elf.a(atol.eo)
                              build/default/production/_ext/1360937237/In_Sensor.o (_atol)
c:/program files (x86)/microchip/xc16/v1.20/bin/bin/../../lib\libc-elf.a(errno.eo)
                              c:/program files (x86)/microchip/xc16/v1.20/bin/bin/../../lib\libc-elf.a(atof.eo) (_errno)
c:/program files (x86)/microchip/xc16/v1.20/bin/bin/../../lib\libc-elf.a(memset.eo)
                              build/default/production/_ext/1360937237/TF_main.o (_memset)
c:/program files (x86)/microchip/xc16/v1.20/bin/bin/../../lib\libc-elf.a(strcat.eo)
                              build/default/production/_ext/1360937237/Regist.o (_strcat)
c:/program files (x86)/microchip/xc16/v1.20/bin/bin/../../lib\libc-elf.a(strchr.eo)
                              build/default/production/_ext/1360937237/Regist.o (_strchr)
c:/program files (x86)/microchip/xc16/v1.20/bin/bin/../../lib\libc-elf.a(strcpy.eo)
                              build/default/production/_ext/1360937237/Regist.o (_strcpy)
c:/program files (x86)/microchip/xc16/v1.20/bin/bin/../../lib\libc-elf.a(strlen.eo)
                              build/default/production/_ext/1360937237/Comm232.o (_strlen)
c:/program files (x86)/microchip/xc16/v1.20/bin/bin/../../lib\libc-elf.a(sprintf_cdnopuxX.XXeo)
                              build/default/production/_ext/1360937237/Comm232.o (__sprintf_cdnopuxX)
c:/program files (x86)/microchip/xc16/v1.20/bin/bin/../../lib\libc-elf.a(sscanf_cdnopuxX.XXeo)
                              build/default/production/_ext/1360937237/SerialSensor.o (__sscanf_cdnopuxX)
c:/program files (x86)/microchip/xc16/v1.20/bin/bin/../../lib\libc-elf.a(doscan_cdnopuxX.XXeo)
                              c:/program files (x86)/microchip/xc16/v1.20/bin/bin/../../lib\libc-elf.a(sscanf_cdnopuxX.XXeo) (__vfscanf_cdnopuxX)
c:/program files (x86)/microchip/xc16/v1.20/bin/bin/../../lib\libc-elf.a(doprnt_cdnopuxX.XXeo)
                              c:/program files (x86)/microchip/xc16/v1.20/bin/bin/../../lib\libc-elf.a(sprintf_cdnopuxX.XXeo) (__vfprintf_cdnopuxX)
c:/program files (x86)/microchip/xc16/v1.20/bin/bin/../../lib\libc-elf.a(sprintf_cdfFnopuxX.XXeo)
                              build/default/production/_ext/1360937237/cmGsmSm.o (__sprintf_cdfFnopuxX)
c:/program files (x86)/microchip/xc16/v1.20/bin/bin/../../lib\libc-elf.a(sscanf_cdfFnopuxX.XXeo)
                              build/default/production/_ext/1360937237/SerialSensor.o (__sscanf_cdfFnopuxX)
c:/program files (x86)/microchip/xc16/v1.20/bin/bin/../../lib\libc-elf.a(doscan_cdfFnopuxX.XXeo)
                              c:/program files (x86)/microchip/xc16/v1.20/bin/bin/../../lib\libc-elf.a(sscanf_cdfFnopuxX.XXeo) (__vfscanf_cdfFnopuxX)
c:/program files (x86)/microchip/xc16/v1.20/bin/bin/../../lib\libc-elf.a(doprnt_cdfFnopuxX.XXeo)
                              c:/program files (x86)/microchip/xc16/v1.20/bin/bin/../../lib\libc-elf.a(sprintf_cdfFnopuxX.XXeo) (__vfprintf_cdfFnopuxX)
c:/program files (x86)/microchip/xc16/v1.20/bin/bin/../../lib\libc-elf.a(atof_cdfFnopuxX.dXXeo)
                              c:/program files (x86)/microchip/xc16/v1.20/bin/bin/../../lib\libc-elf.a(doscan_cdfFnopuxX.XXeo) (__dstrtod)
c:/program files (x86)/microchip/xc16/v1.20/bin/bin/../../lib\libc-elf.a(sprintf_cdfFnopsuxX.XXeo)
                              (__sprintf_cdfFnopsuxX)
c:/program files (x86)/microchip/xc16/v1.20/bin/bin/../../lib\libc-elf.a(sscanf_cdfFnopsuxX.XXeo)
                              (__sscanf_cdfFnopsuxX)
c:/program files (x86)/microchip/xc16/v1.20/bin/bin/../../lib\libc-elf.a(doscan_cdfFnopsuxX.XXeo)
                              c:/program files (x86)/microchip/xc16/v1.20/bin/bin/../../lib\libc-elf.a(sscanf_cdfFnopsuxX.XXeo) (__vfscanf_cdfFnopsuxX)
c:/program files (x86)/microchip/xc16/v1.20/bin/bin/../../lib\libc-elf.a(doprnt_cdfFnopsuxX.XXeo)
                              c:/program files (x86)/microchip/xc16/v1.20/bin/bin/../../lib\libc-elf.a(sprintf_cdfFnopsuxX.XXeo) (__vfprintf_cdfFnopsuxX)
c:/program files (x86)/microchip/xc16/v1.20/bin/bin/../../lib\libc-elf.a(sprintf_cdnopsuxX.XXeo)
                              build/default/production/_ext/1360937237/TF_main.o (__sprintf_cdnopsuxX)
c:/program files (x86)/microchip/xc16/v1.20/bin/bin/../../lib\libc-elf.a(sscanf_cdnopsuxX.XXeo)
                              build/default/production/_ext/1360937237/Regist.o (__sscanf_cdnopsuxX)
c:/program files (x86)/microchip/xc16/v1.20/bin/bin/../../lib\libc-elf.a(doscan_cdnopsuxX.XXeo)
                              c:/program files (x86)/microchip/xc16/v1.20/bin/bin/../../lib\libc-elf.a(sscanf_cdnopsuxX.XXeo) (__vfscanf_cdnopsuxX)
c:/program files (x86)/microchip/xc16/v1.20/bin/bin/../../lib\libc-elf.a(doprnt_cdnopsuxX.XXeo)
                              c:/program files (x86)/microchip/xc16/v1.20/bin/bin/../../lib\libc-elf.a(sprintf_cdnopsuxX.XXeo) (__vfprintf_cdnopsuxX)
c:/program files (x86)/microchip/xc16/v1.20/bin/bin/../../lib\libc-elf.a(sprintf_fF.XXeo)
                              build/default/production/_ext/1360937237/Power.o (__sprintf_fF)
c:/program files (x86)/microchip/xc16/v1.20/bin/bin/../../lib\libc-elf.a(doprnt_fF.XXeo)
                              c:/program files (x86)/microchip/xc16/v1.20/bin/bin/../../lib\libc-elf.a(sprintf_fF.XXeo) (__vfprintf_fF)
c:/program files (x86)/microchip/xc16/v1.20/bin/bin/../../lib\libc-elf.a(isalpha.eso)
                              c:/program files (x86)/microchip/xc16/v1.20/bin/bin/../../lib\libc-elf.a(doscan_cdnopuxX.XXeo) (_isalpha)
c:/program files (x86)/microchip/xc16/v1.20/bin/bin/../../lib\libc-elf.a(isspace.eso)
                              c:/program files (x86)/microchip/xc16/v1.20/bin/bin/../../lib\libc-elf.a(atof.eo) (_isspace)
c:/program files (x86)/microchip/xc16/v1.20/bin/bin/../../lib\libc-elf.a(isupper.eso)
                              c:/program files (x86)/microchip/xc16/v1.20/bin/bin/../../lib\libc-elf.a(doscan_cdnopuxX.XXeo) (_isupper)
c:/program files (x86)/microchip/xc16/v1.20/bin/bin/../../lib\libc-elf.a(isxdigit.eso)
                              build/default/production/_ext/1360937237/Sub.o (_isxdigit)
c:/program files (x86)/microchip/xc16/v1.20/bin/bin/../../lib\libc-elf.a(tolower.eso)
                              c:/program files (x86)/microchip/xc16/v1.20/bin/bin/../../lib\libc-elf.a(doscan_cdnopuxX.XXeo) (_tolower)
c:/program files (x86)/microchip/xc16/v1.20/bin/bin/../../lib\libc-elf.a(fgetc.eo)
                              c:/program files (x86)/microchip/xc16/v1.20/bin/bin/../../lib\libc-elf.a(doscan_cdnopuxX.XXeo) (_fgetc)
c:/program files (x86)/microchip/xc16/v1.20/bin/bin/../../lib\libc-elf.a(filbuf.eo)
                              c:/program files (x86)/microchip/xc16/v1.20/bin/bin/../../lib\libc-elf.a(fgetc.eo) (__filbuf)
c:/program files (x86)/microchip/xc16/v1.20/bin/bin/../../lib\libc-elf.a(fputc.eo)
                              c:/program files (x86)/microchip/xc16/v1.20/bin/bin/../../lib\libc-elf.a(doprnt_cdnopuxX.XXeo) (_fputc)
c:/program files (x86)/microchip/xc16/v1.20/bin/bin/../../lib\libc-elf.a(powers.eo)
                              c:/program files (x86)/microchip/xc16/v1.20/bin/bin/../../lib\libc-elf.a(doprnt_cdfFnopuxX.XXeo) (__powers_)
c:/program files (x86)/microchip/xc16/v1.20/bin/bin/../../lib\libc-elf.a(ungetc.eo)
                              c:/program files (x86)/microchip/xc16/v1.20/bin/bin/../../lib\libc-elf.a(doscan_cdnopuxX.XXeo) (_ungetc)
c:/program files (x86)/microchip/xc16/v1.20/bin/bin/../../lib\libc-elf.a(_iob.eo)
                              c:/program files (x86)/microchip/xc16/v1.20/bin/bin/../../lib\libc-elf.a(filbuf.eo) (__iob)
c:/program files (x86)/microchip/xc16/v1.20/bin/bin/../../lib\libc-elf.a(fflush.eo)
                              c:/program files (x86)/microchip/xc16/v1.20/bin/bin/../../lib\libc-elf.a(filbuf.eo) (_fflush)
c:/program files (x86)/microchip/xc16/v1.20/bin/bin/../../lib\libc-elf.a(flsbuf.eo)
                              c:/program files (x86)/microchip/xc16/v1.20/bin/bin/../../lib\libc-elf.a(fputc.eo) (__flsbuf)
c:/program files (x86)/microchip/xc16/v1.20/bin/bin/../../lib\libpic30-elf.a(read.eo)
                              c:/program files (x86)/microchip/xc16/v1.20/bin/bin/../../lib\libc-elf.a(filbuf.eo) (_read)
c:/program files (x86)/microchip/xc16/v1.20/bin/bin/../../lib\libpic30-elf.a(write.eo)
                              c:/program files (x86)/microchip/xc16/v1.20/bin/bin/../../lib\libc-elf.a(fputc.eo) (_write)
c:/program files (x86)/microchip/xc16/v1.20/bin/bin/../../lib\libm-elf.a(adddf3.eo)
                              c:/program files (x86)/microchip/xc16/v1.20/bin/bin/../../lib\libc-elf.a(doprnt_cdfFnopuxX.XXeo) (___adddf3)
c:/program files (x86)/microchip/xc16/v1.20/bin/bin/../../lib\libm-elf.a(deqltle.eo)
                              c:/program files (x86)/microchip/xc16/v1.20/bin/bin/../../lib\libc-elf.a(atof_cdfFnopuxX.dXXeo) (___eqdf2)
c:/program files (x86)/microchip/xc16/v1.20/bin/bin/../../lib\libm-elf.a(dgtge.eo)
                              c:/program files (x86)/microchip/xc16/v1.20/bin/bin/../../lib\libc-elf.a(atof_cdfFnopuxX.dXXeo) (___gtdf2)
c:/program files (x86)/microchip/xc16/v1.20/bin/bin/../../lib\libm-elf.a(divdf3.eo)
                              c:/program files (x86)/microchip/xc16/v1.20/bin/bin/../../lib\libc-elf.a(doprnt_cdfFnopuxX.XXeo) (___divdf3)
c:/program files (x86)/microchip/xc16/v1.20/bin/bin/../../lib\libm-elf.a(divsf3.eo)
                              c:/program files (x86)/microchip/xc16/v1.20/bin/bin/../../lib\libc-elf.a(atof.eo) (___divsf3)
c:/program files (x86)/microchip/xc16/v1.20/bin/bin/../../lib\libm-elf.a(dne.eo)
                              c:/program files (x86)/microchip/xc16/v1.20/bin/bin/../../lib\libc-elf.a(doprnt_cdfFnopuxX.XXeo) (___nedf2)
c:/program files (x86)/microchip/xc16/v1.20/bin/bin/../../lib\libm-elf.a(dpack.eo)
                              c:/program files (x86)/microchip/xc16/v1.20/bin/bin/../../lib\libm-elf.a(adddf3.eo) (__dpack)
c:/program files (x86)/microchip/xc16/v1.20/bin/bin/../../lib\libm-elf.a(dunpack2.eo)
                              c:/program files (x86)/microchip/xc16/v1.20/bin/bin/../../lib\libm-elf.a(adddf3.eo) (__dunpack2)
c:/program files (x86)/microchip/xc16/v1.20/bin/bin/../../lib\libm-elf.a(extendsfdf.eo)
                              c:/program files (x86)/microchip/xc16/v1.20/bin/bin/../../lib\libc-elf.a(doprnt_cdfFnopuxX.XXeo) (___extendsfdf2)
c:/program files (x86)/microchip/xc16/v1.20/bin/bin/../../lib\libm-elf.a(fixunsdfdi.eo)
                              c:/program files (x86)/microchip/xc16/v1.20/bin/bin/../../lib\libc-elf.a(doprnt_cdfFnopuxX.XXeo) (___fixunsdfdi)
c:/program files (x86)/microchip/xc16/v1.20/bin/bin/../../lib\libm-elf.a(floatsidf.eo)
                              c:/program files (x86)/microchip/xc16/v1.20/bin/bin/../../lib\libc-elf.a(atof_cdfFnopuxX.dXXeo) (___floatsidf)
c:/program files (x86)/microchip/xc16/v1.20/bin/bin/../../lib\libm-elf.a(floatsisf.eo)
                              c:/program files (x86)/microchip/xc16/v1.20/bin/bin/../../lib\libc-elf.a(atof.eo) (___floatsisf)
c:/program files (x86)/microchip/xc16/v1.20/bin/bin/../../lib\libm-elf.a(floatundidf.eo)
                              c:/program files (x86)/microchip/xc16/v1.20/bin/bin/../../lib\libc-elf.a(doprnt_cdfFnopuxX.XXeo) (___floatundidf)
c:/program files (x86)/microchip/xc16/v1.20/bin/bin/../../lib\libm-elf.a(frexpf.eo)
                              c:/program files (x86)/microchip/xc16/v1.20/bin/bin/../../lib\libc-elf.a(doprnt_cdfFnopuxX.XXeo) (_frexpf)
c:/program files (x86)/microchip/xc16/v1.20/bin/bin/../../lib\libm-elf.a(muldf3.eo)
                              c:/program files (x86)/microchip/xc16/v1.20/bin/bin/../../lib\libc-elf.a(doprnt_cdfFnopuxX.XXeo) (___muldf3)
c:/program files (x86)/microchip/xc16/v1.20/bin/bin/../../lib\libm-elf.a(subdf3.eo)
                              c:/program files (x86)/microchip/xc16/v1.20/bin/bin/../../lib\libc-elf.a(doprnt_cdfFnopuxX.XXeo) (___subdf3)
c:/program files (x86)/microchip/xc16/v1.20/bin/bin/../../lib\libm-elf.a(truncdfsf.eo)
                              c:/program files (x86)/microchip/xc16/v1.20/bin/bin/../../lib\libc-elf.a(doprnt_cdfFnopuxX.XXeo) (___truncdfsf2)
c:/program files (x86)/microchip/xc16/v1.20/bin/bin/../../lib\libm-elf.a(mulsi3.eo)
                              c:/program files (x86)/microchip/xc16/v1.20/bin/bin/../../lib\libc-elf.a(atof.eo) (___mulsi3)
c:/program files (x86)/microchip/xc16/v1.20/bin/bin/../../lib\libm-elf.a(divmoddi3.eo)
                              c:/program files (x86)/microchip/xc16/v1.20/bin/bin/../../lib\libc-elf.a(doprnt_cdnopuxX.XXeo) (___udivdi3)
c:/program files (x86)/microchip/xc16/v1.20/bin/bin/../../lib\libm-elf.a(muldi3.eo)
                              c:/program files (x86)/microchip/xc16/v1.20/bin/bin/../../lib\libc-elf.a(doprnt_cdnopuxX.XXeo) (___muldi3)
c:/program files (x86)/microchip/xc16/v1.20/bin/bin/../../lib\libm-elf.a(_frexpf.eo)
                              c:/program files (x86)/microchip/xc16/v1.20/bin/bin/../../lib\libm-elf.a(frexpf.eo) (__frexpf)
c:/program files (x86)/microchip/xc16/v1.20/bin/bin/../../lib\libm-elf.a(dcompare.eo)
                              c:/program files (x86)/microchip/xc16/v1.20/bin/bin/../../lib\libm-elf.a(deqltle.eo) (__dcompare)
c:/program files (x86)/microchip/xc16/v1.20/bin/bin/../../lib\libm-elf.a(dpropagateNaN.eo)
                              c:/program files (x86)/microchip/xc16/v1.20/bin/bin/../../lib\libm-elf.a(dunpack2.eo) (__dPropagateNaN)
c:/program files (x86)/microchip/xc16/v1.20/bin/bin/../../lib\libm-elf.a(dtype.eo)
                              c:/program files (x86)/microchip/xc16/v1.20/bin/bin/../../lib\libm-elf.a(dcompare.eo) (__dtype)
c:/program files (x86)/microchip/xc16/v1.20/bin/bin/../../lib\libm-elf.a(dunpack.eo)
                              c:/program files (x86)/microchip/xc16/v1.20/bin/bin/../../lib\libm-elf.a(dunpack2.eo) (__dunpack)
c:/program files (x86)/microchip/xc16/v1.20/bin/bin/../../lib\libm-elf.a(floatdidf.eo)
                              c:/program files (x86)/microchip/xc16/v1.20/bin/bin/../../lib\libm-elf.a(floatsidf.eo) (___floatdidf)
c:/program files (x86)/microchip/xc16/v1.20/bin/bin/../../lib\libm-elf.a(floatdisf.eo)
                              c:/program files (x86)/microchip/xc16/v1.20/bin/bin/../../lib\libm-elf.a(floatsisf.eo) (___floatdisf)
c:/program files (x86)/microchip/xc16/v1.20/bin/bin/../../lib\libm-elf.a(umuldi3.eo)
                              c:/program files (x86)/microchip/xc16/v1.20/bin/bin/../../lib\libm-elf.a(muldi3.eo) (___umuldi3)


Program Memory  [Origin = 0x200, Length = 0x2a9f6]

section                    address   length (PC units)   length (bytes) (dec)
-------                    -------   -----------------   --------------------
EZBL_ROM_AT_0x000200         0x200              0x1600          0x2100  (8448)
EZBL_AppErasable            0x1800                 0xc            0x12  (18)
.igt                        0x180c               0x114           0x19e  (414)
.text                       0x1920              0x44ce          0x6735  (26421)
.const                      0x5dee               0x15e           0x20d  (525)
.text                       0x5f4c              0x3580          0x5040  (20544)
.dinit                      0x94cc               0xef6          0x1671  (5745)
.text                       0xa3c2              0xaf36         0x106d1  (67281)

                     Total program memory used (bytes):        0x1f974  (129396) 49%


Data Memory  [Origin = 0x800, Length = 0x4000]

section                    address      alignment gaps    total length  (dec)
-------                    -------      --------------    -------------------
.bss                         0x800                   0            0x46  (70)
.bss                         0x846                   0             0xa  (10)
EZBL_RAM_AT_0x000850         0x850                   0            0xb0  (176)
.bss                         0x900                   0          0x18c2  (6338)
.data                       0x21c2                   0           0x8d0  (2256)
.bss                        0x2a92                   0           0x38a  (906)
.data                       0x2e1c                   0           0x16c  (364)
.data._powers_              0x2f88                   0           0x160  (352)
.data                       0x30e8                   0           0x458  (1112)
.bss                        0x3540                   0            0xd2  (210)
.data                       0x3612                   0            0xa6  (166)
.data.dpowers               0x36b8                   0            0xa0  (160)
.data                       0x3758                   0           0x1c2  (450)
.bss                        0x391a                   0            0x64  (100)
.data                       0x397e                   0            0x5a  (90)
.bss                        0x39d8                   0            0x80  (128)
.data                       0x3a58                   0            0xd8  (216)
.bss                        0x3b30                   0            0x2c  (44)
.data                       0x3b5c                   0            0x2a  (42)
.data._iob                  0x3b86                   0            0x26  (38)
.data                       0x3bac                   0            0x20  (32)
.bss                        0x3bcc                   0            0x18  (24)
.data                       0x3be4                   0             0xe  (14)
.data                       0x3bf2                   0            0x12  (18)
.bss                        0x3c04                   0             0xa  (10)
.data                       0x3c0e                   0             0x4  (4)
.bss                        0x3c12                   0             0xe  (14)

                        Total data memory used (bytes):         0x3420  (13344) 81%


Dynamic Memory Usage

region                     address                      maximum length  (dec)
------                     -------                      ---------------------
heap                             0                                   0  (0)
stack                       0x3c20                               0xbe0  (3040)

                        Maximum dynamic memory (bytes):          0xbe0  (3040)


External Symbols in Data Memory (by address):

                    0x0802                  _queue
                    0x0846                  _IPL_CPU
                    0x0847                  _IPL_Lvd
                    0x0848                  _IPL_Timer2
                    0x0849                  _IPL_Calendar
                    0x084a                  _IPL_Rain
                    0x084b                  _IPL_U1rx
                    0x084c                  _IPL_U2rx
                    0x084d                  _IPL_AD
                    0x084e                  _IPL_CN
                    0x0900                  _Msg0
                    0x0902                  _Msg1
                    0x0904                  _Msg2
                    0x0906                  _sw1
                    0x0908                  _Error0
                    0x090a                  _Tmr
                    0x090c                  _TmrUp
                    0x090e                  _key
                    0x0910                  _Tasking
                    0x0924                  _ActiveTask
                    0x0925                  _stepINT_REPORT
                    0x0926                  _stepDO_REPORT
                    0x0927                  _Step
                    0x0931                  _ActiveCom
                    0x0932                  _ComOpen
                    0x0937                  _ModemReady
                    0x093c                  _ms_click
                    0x093e                  _sec_click
                    0x0940                  _sec_cmp
                    0x0942                  _iTimeCmp
                    0x0944                  _iIdleKey
                    0x0946                  _iWaitSensorCmp
                    0x0948                  _iRefreshDly
                    0x094a                  _filter_type
                    0x094b                  _ComStatus
                    0x094c                  _minTrans0
                    0x094d                  _fCfgGood
                    0x094e                  _pCmfg
                    0x0950                  _ComSW
                    0x0951                  _cntGModemFailed
                    0x0952                  _cntSensorComFailed
                    0x0953                  _cntMemMirrorFailed
                    0x0954                  _cntRecFailed
                    0x0955                  _cntXmeFailed
                    0x0956                  _cntLCDErr
                    0x0957                  _fLcdReady
                    0x0958                  _fBlinkEnabled
                    0x0959                  _ScrollIndex
                    0x095a                  _CurX
                    0x095b                  _CurY
                    0x095c                  _pFormat
                    0x095e                  _pDefault
                    0x0960                  _ResetCode
                    0x0962                  _pb_count
                    0x0964                  _Srn
                    0x0ca0                  _KeyPollEnabled
                    0x0ca1                  _KeyBlindCount
                    0x0ca2                  _rTime
                    0x0ca8                  _ptr_tx
                    0x0caa                  _Tx_Count
                    0x0cac                  _ptr1_rx
                    0x0cae                  _rx1
                    0x14d6                  _ptr2_rx
                    0x14d8                  _rx2
                    0x1d00                  _ptr3_rx
                    0x1d02                  _rx3
                    0x1e02                  _ptr4_rx
                    0x1e04                  _Port
                    0x2044                  _CellRequest0
                    0x2045                  _CellRequest1
                    0x2046                  _IntC0
                    0x2084                  _c0Table
                    0x20c2                  _cxTable
                    0x21c2                  _sVer
                    0x21d3                  _cfg
                    0x29d4                  _KeyV
                    0x2a92                  _g_LongNameBuf
                    0x2afa                  _FileNameBuffer
                    0x2dca                  _FileCount
                    0x2dcc                  _pFileName
                    0x2e1c                  _ROM_LF
                    0x2e1e                  _MQuery_txtRain
                    0x2e38                  _MQuery_txtLevel
                    0x2e4a                  _MQuery_txtId
                    0x2e52                  _MQuery_txtVoltage
                    0x2e5a                  _MQuery_txtCSQ
                    0x2f88                  __powers_
                    0x3038                  __npowers_
                    0x30e8                  _SensorInName
                    0x3101                  _SensorInVersion
                    0x311a                  _RainSwitch
                    0x313e                  _RainAlarm
                    0x315f                  _EncodeSwitch
                    0x3183                  _EncodeAlarm
                    0x31a6                  _EncodePol
                    0x31ca                  _EncodeCo
                    0x31ec                  _EncodeCurLevel
                    0x320f                  _blank_line
                    0x3220                  _optNext
                    0x346e                  _ROM_0D
                    0x3540                  _ActiveSrn
                    0x3758                  _g_uchSDInserFlg
                    0x375a                  _b_IniFlag
                    0x391a                  _screen
                    0x39d8                  _Stream
                    0x3a18                  _buf
                    0x3a92                  _yy0
                    0x3a9e                  _yy1
                    0x3aaa                  _debug_tel
                    0x3afe                  _decimalH
                    0x3b0e                  _decimalL
                    0x3b1e                  _MacID
                    0x3b26                  _Temperature
                    0x3b30                  _rain_stop
                    0x3b32                  _rain_count
                    0x3b34                  _uCSQ
                    0x3b36                  _uBDQ
                    0x3b38                  _wEncode
                    0x3b3a                  _wEncode2
                    0x3b3c                  _OldLevel
                    0x3b3e                  _Temp
                    0x3b40                  _Vol
                    0x3b42                  _MinuteBase
                    0x3b4a                  _HourBase
                    0x3b52                  _DayBase
                    0x3b86                  __iob
                    0x3baa                  __Files
                    0x3bcc                  _ResultTemperatureLH
                    0x3bcd                  _ResultTemperatureH
                    0x3bce                  _ResultTemperatureLL
                    0x3bd0                  _A
                    0x3bd2                  _B
                    0x3bd4                  _C
                    0x3bd6                  _D
                    0x3bd8                  _E
                    0x3bda                  _F
                    0x3bdc                  _G
                    0x3bde                  _H
                    0x3be0                  _I
                    0x3be2                  _J
                    0x3c04                  __outdone
                    0x3c05                  __sibuf
                    0x3c07                  __sobuf
                    0x3c0a                  _stepGET_RESP
                    0x3c0e                  _cntCC
                    0x3c12                  _file_id
                    0x3c14                  _CSQ
                    0x3c16                  _errno

External Symbols in Data Memory (by name):

                    0x3bd0                  _A
                    0x0931                  _ActiveCom
                    0x3540                  _ActiveSrn
                    0x0924                  _ActiveTask
                    0x3bd2                  _B
                    0x3bd4                  _C
                    0x3c14                  _CSQ
                    0x2044                  _CellRequest0
                    0x2045                  _CellRequest1
                    0x0932                  _ComOpen
                    0x0950                  _ComSW
                    0x094b                  _ComStatus
                    0x095a                  _CurX
                    0x095b                  _CurY
                    0x3bd6                  _D
                    0x3b52                  _DayBase
                    0x3bd8                  _E
                    0x3183                  _EncodeAlarm
                    0x31ca                  _EncodeCo
                    0x31ec                  _EncodeCurLevel
                    0x31a6                  _EncodePol
                    0x315f                  _EncodeSwitch
                    0x0908                  _Error0
                    0x3bda                  _F
                    0x2dca                  _FileCount
                    0x2afa                  _FileNameBuffer
                    0x3bdc                  _G
                    0x3bde                  _H
                    0x3b4a                  _HourBase
                    0x3be0                  _I
                    0x084d                  _IPL_AD
                    0x084e                  _IPL_CN
                    0x0846                  _IPL_CPU
                    0x0849                  _IPL_Calendar
                    0x0847                  _IPL_Lvd
                    0x084a                  _IPL_Rain
                    0x0848                  _IPL_Timer2
                    0x084b                  _IPL_U1rx
                    0x084c                  _IPL_U2rx
                    0x2046                  _IntC0
                    0x3be2                  _J
                    0x0ca1                  _KeyBlindCount
                    0x0ca0                  _KeyPollEnabled
                    0x29d4                  _KeyV
                    0x2e5a                  _MQuery_txtCSQ
                    0x2e4a                  _MQuery_txtId
                    0x2e38                  _MQuery_txtLevel
                    0x2e1e                  _MQuery_txtRain
                    0x2e52                  _MQuery_txtVoltage
                    0x3b1e                  _MacID
                    0x3b42                  _MinuteBase
                    0x0937                  _ModemReady
                    0x0900                  _Msg0
                    0x0902                  _Msg1
                    0x0904                  _Msg2
                    0x3b3c                  _OldLevel
                    0x1e04                  _Port
                    0x346e                  _ROM_0D
                    0x2e1c                  _ROM_LF
                    0x313e                  _RainAlarm
                    0x311a                  _RainSwitch
                    0x0960                  _ResetCode
                    0x3bcd                  _ResultTemperatureH
                    0x3bcc                  _ResultTemperatureLH
                    0x3bce                  _ResultTemperatureLL
                    0x0959                  _ScrollIndex
                    0x30e8                  _SensorInName
                    0x3101                  _SensorInVersion
                    0x0964                  _Srn
                    0x0927                  _Step
                    0x39d8                  _Stream
                    0x0910                  _Tasking
                    0x3b3e                  _Temp
                    0x3b26                  _Temperature
                    0x090a                  _Tmr
                    0x090c                  _TmrUp
                    0x0caa                  _Tx_Count
                    0x3b40                  _Vol
                    0x3baa                  __Files
                    0x3b86                  __iob
                    0x3038                  __npowers_
                    0x3c04                  __outdone
                    0x2f88                  __powers_
                    0x3c05                  __sibuf
                    0x3c07                  __sobuf
                    0x375a                  _b_IniFlag
                    0x320f                  _blank_line
                    0x3a18                  _buf
                    0x2084                  _c0Table
                    0x21d3                  _cfg
                    0x3c0e                  _cntCC
                    0x0951                  _cntGModemFailed
                    0x0956                  _cntLCDErr
                    0x0953                  _cntMemMirrorFailed
                    0x0954                  _cntRecFailed
                    0x0952                  _cntSensorComFailed
                    0x0955                  _cntXmeFailed
                    0x20c2                  _cxTable
                    0x3aaa                  _debug_tel
                    0x3afe                  _decimalH
                    0x3b0e                  _decimalL
                    0x3c16                  _errno
                    0x0958                  _fBlinkEnabled
                    0x094d                  _fCfgGood
                    0x0957                  _fLcdReady
                    0x3c12                  _file_id
                    0x094a                  _filter_type
                    0x2a92                  _g_LongNameBuf
                    0x3758                  _g_uchSDInserFlg
                    0x0944                  _iIdleKey
                    0x0948                  _iRefreshDly
                    0x0942                  _iTimeCmp
                    0x0946                  _iWaitSensorCmp
                    0x090e                  _key
                    0x094c                  _minTrans0
                    0x093c                  _ms_click
                    0x3220                  _optNext
                    0x094e                  _pCmfg
                    0x095e                  _pDefault
                    0x2dcc                  _pFileName
                    0x095c                  _pFormat
                    0x0962                  _pb_count
                    0x0cac                  _ptr1_rx
                    0x14d6                  _ptr2_rx
                    0x1d00                  _ptr3_rx
                    0x1e02                  _ptr4_rx
                    0x0ca8                  _ptr_tx
                    0x0802                  _queue
                    0x0ca2                  _rTime
                    0x3b32                  _rain_count
                    0x3b30                  _rain_stop
                    0x0cae                  _rx1
                    0x14d8                  _rx2
                    0x1d02                  _rx3
                    0x21c2                  _sVer
                    0x391a                  _screen
                    0x093e                  _sec_click
                    0x0940                  _sec_cmp
                    0x0926                  _stepDO_REPORT
                    0x3c0a                  _stepGET_RESP
                    0x0925                  _stepINT_REPORT
                    0x0906                  _sw1
                    0x3b36                  _uBDQ
                    0x3b34                  _uCSQ
                    0x3b38                  _wEncode
                    0x3b3a                  _wEncode2
                    0x3a92                  _yy0
                    0x3a9e                  _yy1

External Symbols in Program Memory (by address):

                  0x001920                  __resetPRI
                  0x001946                  __psv_init
                  0x001956                  __data_init_standard
                  0x001956                  __data_init
                  0x0019b4                  __T2Interrupt
                  0x001a40                  _U_Rx
                  0x001b06                  __U1RXInterrupt
                  0x001b38                  __U2RXInterrupt
                  0x001b6a                  __U3RXInterrupt
                  0x001b9c                  __U1TXInterrupt
                  0x001be2                  __U2TXInterrupt
                  0x001c28                  __U4RXInterrupt
                  0x001c3a                  __INT1Interrupt
                  0x001c8c                  __CNInterrupt
                  0x001cf4                  __ADC1Interrupt
                  0x001de4                  __INT2Interrupt
                  0x001e2c                  __INT3Interrupt
                  0x001e4a                  __LVDInterrupt
                  0x001e5e                  __OscillatorFail
                  0x001e64                  __AddressError
                  0x001e6a                  __StackError
                  0x001e70                  __MathError
                  0x001e76                  _EndCom
                  0x001ea6                  _SwitchToComport
                  0x001ed8                  _ClrBelt
                  0x001f12                  _DoMeasurement
                  0x001f88                  _StartSensors
                  0x001fe8                  _PrePortReading
                  0x001ff2                  _PostPortReading
                  0x002004                  _SensorIntReports
                  0x00200e                  _IsRxOver
                  0x0020dc                  _TriggerPort
                  0x0020e4                  _ConnectCell
                  0x00211e                  _Inst_Analysis
                  0x002250                  _ShowDownResult
                  0x0022ba                  _FormatUltrashort
                  0x0022c8                  _FormatSM
                  0x0022d6                  _FormatPSTN
                  0x0022e4                  _StripOffComHeader
                  0x002332                  _Connect
                  0x0023ee                  _Com1Proc
                  0x00246c                  _Com2Proc
                  0x002474                  _RingReport
                  0x002480                  _WaitSensorEcho
                  0x0024a6                  _DirectAccess
                  0x00253e                  _RxPinLocked
                  0x00257a                  _ChargeManage
                  0x002580                  _CheckCfgValidation
                  0x002586                  _PowerBeforeSleep
                  0x0025f8                  _StartScreen
                  0x002646                  _SystemGuard
                  0x002678                  _GetCTable
                  0x002758                  _LoadCfgIfOk
                  0x0027e6                  _CheckCfg
                  0x00287e                  _InitPower
                  0x002890                  _TaskLine
                  0x0028d2                  _GoSleep
                  0x00298e                  _KeyDisplay
                  0x0029da                  _main
                  0x002cf8                  __DefaultInterrupt
                  0x002cfc                  _isalpha
                  0x002d10                  _isspace
                  0x002d20                  _isupper
                  0x002d2c                  _isxdigit
                  0x002d48                  _tolower
                  0x002d56                  ___subsf3
                  0x002d58                  ___addsf3
                  0x002e12                  ___ltsf2
                  0x002e12                  ___lesf2
                  0x002e12                  ___eqsf2
                  0x002e16                  ___gtsf2
                  0x002e16                  ___gesf2
                  0x002e1a                  ___fixsfsi
                  0x002e5c                  ___fixunssfsi
                  0x002e92                  ___floatunsisf
                  0x002e96                  __fpack
                  0x002ee2                  __funpack
                  0x002f0c                  __funpack2
                  0x002f1c                  __fPropagateNaN
                  0x002f2e                  __fbopExit
                  0x002f36                  __fbopReturnNaN
                  0x002f3c                  ___modsi3
                  0x002f5a                  ___mulsf3
                  0x002fc2                  ___umodsi3
                  0x002fc8                  __fcompare
                  0x002ffe                  ___floatundisf
                  0x00305c                  _strtod
                  0x00324a                  _atof
                  0x00324e                  _atoi
                  0x00328c                  _atol
                  0x0032e2                  _memset
                  0x0032f0                  _strcat
                  0x003306                  _strchr
                  0x00331a                  _strcpy
                  0x003326                  _strlen
                  0x003398                  __vfscanf_cdnopuxX
                  0x0036a4                  __vfscanf_cdfFnopuxX
                  0x003a5a                  __dstrtod
                  0x003c9a                  __datof
                  0x003c9e                  __sprintf_cdfFnopuxX
                  0x003c9e                  __sprintf_cdfFnopsuxX
                  0x003c9e                  __sprintf_cdnopuxX
                  0x003c9e                  __sprintf_cdnopsuxX
                  0x003c9e                  __sprintf_fF
                  0x003cca                  __sscanf_cdfFnopsuxX
                  0x003cca                  __sscanf_cdnopsuxX
                  0x003cca                  __sscanf_cdnopuxX
                  0x003cca                  __sscanf_cdfFnopuxX
                  0x003d4a                  __vfscanf_cdfFnopsuxX
                  0x004258                  __vfprintf_cdnopuxX
                  0x004258                  __vfprintf_fF
                  0x004258                  __vfprintf_cdnopsuxX
                  0x004258                  __vfprintf_cdfFnopsuxX
                  0x004258                  __vfprintf_cdfFnopuxX
                  0x004eb2                  __vfscanf_cdnopsuxX
                  0x00515a                  _fgetc
                  0x0051c0                  __filbuf
                  0x0052e4                  _ungetc
                  0x00531c                  _fflush
                  0x0054c4                  ___adddf3
                  0x0055be                  ___eqdf2
                  0x0055be                  ___ledf2
                  0x0055be                  ___ltdf2
                  0x0055c8                  ___gedf2
                  0x0055c8                  ___gtdf2
                  0x0055d2                  ___divdf3
                  0x005686                  ___divsf3
                  0x00570a                  ___nedf2
                  0x005714                  __dpack
                  0x00576c                  __dunpack2
                  0x00578e                  __dreturnNaN
                  0x005794                  __dunpack2exit
                  0x00579e                  ___extendsfdf2
                  0x0057dc                  ___fixunsdfdi
                  0x00583e                  ___floatsidf
                  0x005844                  ___floatsisf
                  0x00584a                  ___floatundidf
                  0x0058a0                  _frexpf
                  0x0058a6                  ___muldf3
                  0x005990                  ___subdf3
                  0x005994                  ___truncdfsf2
                  0x0059ea                  ___mulsi3
                  0x0059ea                  ___mulp32eds3
                  0x0059ea                  ___mulp32peds3
                  0x005a68                  ___udivmoddi3
                  0x005b4c                  ___udivdi3
                  0x005b5a                  ___umoddi3
                  0x005b62                  ___divdi3
                  0x005bc2                  ___moddi3
                  0x005c1e                  ___muldi3
                  0x005c70                  __frexpf
                  0x005c8a                  __dcompare
                  0x005cdc                  __dPropagateNaN
                  0x005cf8                  __dtype
                  0x005d1c                  __dunpack
                  0x005d6a                  ___floatdidf
                  0x005d8a                  ___floatdisf
                  0x005daa                  ___umuldi3
                  0x005dee                  _QR
                  0x005f4c                  _SM_process
                  0x00614c                  _SendBackSM
                  0x006328                  _Make_SM_Head
                  0x006504                  _Merge2Bytes
                  0x0065dc                  _Get_tel_number
                  0x006658                  _GetSM
                  0x0066cc                  _Decode_SM_To_src
                  0x00679c                  _Get_sm_index
                  0x00685c                  _CheckSM
                  0x00688e                  _IsMobileQuerying
                  0x006974                  _DeleteSM
                  0x006998                  _Send_AT_CMGS
                  0x0069e6                  _Reserve_6_bits
                  0x006b6c                  _BinaryVisible
                  0x006bb2                  _SendAT
                  0x006bd6                  _RepeatSM
                  0x006c0c                  _TransmitPARA
                  0x006c9e                  _MobileQueryResponse
                  0x006e68                  _TransmitTitle
                  0x006ea6                  _TransmitValue
                  0x006ef4                  _TransmitHZdigits
                  0x006f56                  _TransmitId
                  0x006f84                  _TransmitVoltage
                  0x006fce                  _TransmitCSQ
                  0x007006                  _TransmitMQuery_head
                  0x00708c                  _Transmit
                  0x0070fe                  _EndSM
                  0x00712c                  _SM_ReportError
                  0x00720a                  _getCSQ
                  0x00728c                  _CSQ_to_UINT
                  0x007330                  _SaveMap
                  0x00735c                  _SaveSegs
                  0x007478                  _getPackStr
                  0x0074b8                  _getSLU
                  0x007584                  _getDT
                  0x00762e                  _getDEST
                  0x00763a                  _SkipParaStr
                  0x00768c                  _SaveBlock
                  0x0077d4                  _UpLoadMap
                  0x007950                  _GetStartAddr
                  0x0079b4                  _GetPageSize
                  0x007a08                  _PageSize
                  0x007a34                  _TREG_Authentication
                  0x007aa2                  _getiC0iCx
                  0x007b26                  _TransmitPage
                  0x007c8e                  _TranmitHead
                  0x007d4e                  _Authen
                  0x007e94                  _GetResp
                  0x007ef6                  _Ack
                  0x007f94                  _getXPara
                  0x007f9e                  _DownLoadMap
                  0x0080ec                  _WR_proc
                  0x008216                  _PostDownload
                  0x0082c4                  _DoCfgCRC
                  0x00834e                  _SaveCfg
                  0x00838a                  _CheckSetupAuthority
                  0x00840c                  _CardInit
                  0x008454                  _CardMount
                  0x0084fa                  _getShortName
                  0x008578                  _getLongName
                  0x0085fa                  _get_SDCardStartTime
                  0x008692                  _set_CardStartTimeInCfg
                  0x008780                  _getSDCfgLen
                  0x0087a4                  _CreatCxCardFile
                  0x00885a                  _DeltaToSec
                  0x0088ee                  _hTime2Sec
                  0x00899c                  _CardWriteStr
                  0x008c5e                  _CardReadRec
                  0x008d8c                  _InitCardFiles
                  0x008ecc                  _getRecPosition
                  0x008f76                  _ReadSDRecord
                  0x008ffa                  _TFRecord
                  0x009146                  _getRecordStr
                  0x009228                  _TfCardProc
                  0x009240                  _TimeStr2Struct
                  0x009320                  _Gap2Sec
                  0x0093b2                  _ExportCfg2SDCard
                  0x00a3c2                  _Serial_Transmit
                  0x00a44e                  _Serial_Setup
                  0x00a49a                  _ClrUErr
                  0x00a4d4                  _InitRx
                  0x00a568                  _Serial_End_Tx
                  0x00a58c                  _RX_BUF0
                  0x00a5b4                  _RX_BUF_END
                  0x00a5dc                  _RS232_on
                  0x00a606                  _RS232_off
                  0x00a630                  _RX_IE
                  0x00a67e                  _TRMT
                  0x00a6cc                  _URXDA
                  0x00a726                  _URXREG
                  0x00a76c                  _getRxPtr
                  0x00a7aa                  _Set_RxPtr
                  0x00a7f0                  _IncPtrRx
                  0x00a83c                  _RX_IE_ON
                  0x00a874                  _RX_IE_OFF
                  0x00a8ae                  _TX_IE
                  0x00a8fc                  _TX_IE_ON
                  0x00a936                  _TX_IE_OFF
                  0x00a970                  _IsComOpen
                  0x00a98c                  _OpenComPort
                  0x00a99e                  _CloseComPort
                  0x00a9b0                  _IPL_URX_INT
                  0x00a9fa                  _SetComTask
                  0x00aa20                  _CLR_RX_IF
                  0x00aa5a                  _CLR_TX_IF
                  0x00aa94                  _ClrRxBuf
                  0x00aaba                  _DoReceive
                  0x00aade                  _InitTx
                  0x00ab86                  _InitAllComTasks
                  0x00ac08                  _InitComTask
                  0x00accc                  _CopyParaStr
                  0x00ad16                  _InitModem_GPRM
                  0x00ad78                  _InitModem_WIFI
                  0x00ad86                  _InitModem_GPRS
                  0x00adfc                  _DetectSetBaud
                  0x00ae90                  _ModemRstIfNeeded
                  0x00aed2                  _getIp
                  0x00af1a                  _getPort
                  0x00af5e                  _IsRingIn
                  0x00af92                  _AT_creg
                  0x00b002                  _IsTransparantOver
                  0x00b042                  _InitCom
                  0x00b084                  _ComMaintenance
                  0x00b154                  _HeartBeat
                  0x00b160                  _NextTask
                  0x00b18e                  _IsStrInStream
                  0x00b28a                  _CH376ReadBlock
                  0x00b2ca                  _CH376WriteReqBlock
                  0x00b30a                  _CH376WriteHostBlock
                  0x00b342                  _CH376WriteOfsBlock
                  0x00b382                  _CH376SetFileName
                  0x00b3ca                  _CH376Read32bitDat
                  0x00b420                  _CH376ReadVar8
                  0x00b444                  _CH376WriteVar8
                  0x00b464                  _CH376ReadVar32
                  0x00b47e                  _CH376WriteVar32
                  0x00b4d0                  _CH376EndDirInfo
                  0x00b4dc                  _CH376GetFileSize
                  0x00b4ea                  _CH376GetDiskStatus
                  0x00b4f8                  _CH376GetIntStatus
                  0x00b514                  _Wait376Interrupt
                  0x00b548                  _CH376SendCmdWaitInt
                  0x00b560                  _CH376SendCmdDatWaitInt
                  0x00b580                  _CH376DiskReqSense
                  0x00b59e                  _CH376DiskConnect
                  0x00b5b4                  _CH376DiskMount
                  0x00b5c2                  _CH376FileOpen
                  0x00b5f0                  _CH376FileCreate
                  0x00b60a                  _CH376DirCreate
                  0x00b638                  _CH376SeparatePath
                  0x00b686                  _CH376FileOpenDir
                  0x00b72c                  _CH376FileOpenPath
                  0x00b73e                  _CH376FileCreatePath
                  0x00b790                  _CH376FileErase
                  0x00b808                  _CH376FileClose
                  0x00b81a                  _CH376DirInfoRead
                  0x00b82a                  _CH376DirInfoSave
                  0x00b838                  _CH376ByteLocate
                  0x00b882                  _CH376ByteRead
                  0x00b900                  _CH376ByteWrite
                  0x00b97e                  _CH376DiskCapacity
                  0x00b9b2                  _CH376DiskQuery
                  0x00ba44                  _CH376SecLocate
                  0x00ba86                  _CH376LongNameWrite
                  0x00bb28                  _CH376CheckNameSum
                  0x00bb70                  _CH376LocateInUpDir
                  0x00bc48                  _CH376GetLongName
                  0x00bdc0                  _CH376CreateLongName
                  0x00c11a                  _CursorBlink
                  0x00c19a                  _BlinkOff
                  0x00c1d4                  _InitDsp
                  0x00c202                  _StartKeyAD
                  0x00c21a                  _EndKeyPoll
                  0x00c22c                  _KeyProc
                  0x00c26e                  _getKey
                  0x00c294                  _InitCurXY
                  0x00c2ca                  _Write_DspBuf
                  0x00c456                  _LCDShow
                  0x00c526                  _FindRight
                  0x00c62e                  _FindDown
                  0x00c6b8                  _DoKeyFunc
                  0x00c740                  _GetCurDateTime
                  0x00c7ae                  _FormatDateTime
                  0x00c934                  _DT2Str
                  0x00c998                  _Int2DoubleStr
                  0x00c9ec                  _OutputStatus
                  0x00ca40                  _ClrStr
                  0x00ca4e                  _Seg2Str
                  0x00caf2                  _Waiting_CSQ
                  0x00caf8                  _Waiting_BDQ
                  0x00cafe                  _FillSpace
                  0x00cb5c                  _Refresh_bufLCD_Cx
                  0x00ccd8                  _Scroll
                  0x00cdc4                  _DoEditOK
                  0x00cdca                  _DoEditCancel
                  0x00cdd0                  _DigitToggle
                  0x00ce1a                  _DoEditFunc
                  0x00ce7e                  _MarkFunc
                  0x00ced4                  _Editor
                  0x00cf34                  _CMC
                  0x00cf52                  _CMX
                  0x00cf70                  _IntReports
                  0x00d10e                  _FC_Proc
                  0x00d218                  _getChannel
                  0x00d24e                  _IffcRepeated
                  0x00d27e                  _GetINTC
                  0x00d2e2                  _GetFC
                  0x00d340                  _GetComType
                  0x00d3fc                  _TimeFit
                  0x00d520                  _DspFC
                  0x00d586                  _GetComStr
                  0x00d5ea                  _DoGPRS
                  0x00d696                  _DoWifi
                  0x00d76a                  _DoGPRM
                  0x00d884                  _DoBEIDOU
                  0x00d8da                  _DoDIRECT
                  0x00d932                  _DoUsWave
                  0x00d98a                  _DoSM
                  0x00da4c                  _DoReport
                  0x00dc60                  _DelayAfterComm
                  0x00dc7c                  _GetComResp
                  0x00dcc0                  _DIRECT_end
                  0x00dd20                  _Val
                  0x00dd76                  _X
                  0x00ddca                  _Nops
                  0x00dde4                  _Serial_TransmitHL
                  0x00de04                  _getULNG
                  0x00de42                  _GetCRC
                  0x00de76                  _CheckCRC
                  0x00dee4                  _Delay_s
                  0x00defa                  _Delay_ms
                  0x00df12                  _delay_us
                  0x00df2c                  _pureDelay_ms
                  0x00df42                  _GetMinute
                  0x00df52                  _FillBufWith
                  0x00df7e                  _HexHiByte
                  0x00dfa2                  _HexLoByte
                  0x00dfc2                  _BinOfByte
                  0x00e006                  _Abs
                  0x00e024                  _DataCpy
                  0x00e056                  _IsDataSame
                  0x00e09e                  _DataCpyrom2ram
                  0x00e0d0                  _TimeStampCpy
                  0x00e110                  _Module
                  0x00e140                  _btoa
                  0x00e15a                  _Txt2Bin
                  0x00e1be                  _FloatToStr
                  0x00e372                  _Seg2Float
                  0x00e40e                  _DeCompactBelt
                  0x00e4c4                  _str_to_ram
                  0x00e4ec                  _getC0
                  0x00e508                  _getCX
                  0x00e532                  _IsTimeUp
                  0x00e550                  _GetDefaultValue
                  0x00e5b6                  _InStr
                  0x00e65e                  _InStrChar
                  0x00e698                  _ValueHex
                  0x00e6c4                  _ValueHex2
                  0x00e6f8                  _WriteCfg
                  0x00e716                  _MsgBox
                  0x00e72c                  _GetByte
                  0x00e74c                  _ReadCount
                  0x00e786                  _WriteCount
                  0x00e7ac                  _IncCount
                  0x00e7c8                  _ClrByte
                  0x00e7ec                  _ClrCfgBit
                  0x00e826                  _SetCfgBit
                  0x00e854                  _Split
                  0x00e8be                  _TransmitStr
                  0x00e8dc                  _TransmitBytes
                  0x00e8fe                  _ResetPeri
                  0x00e98a                  _IsSensorReady
                  0x00e996                  _ResetSensor
                  0x00e9a8                  _Restart
                  0x00e9b8                  _FindParaStr
                  0x00e9e4                  _set_RecordStartTime
                  0x00ea2e                  _get_RecordStartTime
                  0x00ea64                  _InitInnerSensor
                  0x00ea86                  _IncRain
                  0x00eac4                  _UserBelt
                  0x00eb4c                  _getCOMx
                  0x00eb7c                  _PutCxInBelt
                  0x00ed02                  _EventRain
                  0x00ed8a                  _getCmpType
                  0x00ee08                  _getVal_ULNG
                  0x00ee5e                  _getVal_FLOAT
                  0x00eebe                  _CompareUL
                  0x00ef98                  _CompareFLOAT
                  0x00f04e                  _EventCondition
                  0x00f0e6                  _beltRain
                  0x00f19a                  _beltEncoder
                  0x00f234                  _getRightMinute
                  0x00f270                  _getRightHour
                  0x00f2b0                  _getRightDay
                  0x00f2f4                  _usrSensorRecord
                  0x00f408                  _ReadEncoder
                  0x00f49a                  _LevelCoder
                  0x00f55c                  _Shift8bits
                  0x00f59c                  _GracodeToBinary
                  0x00f5f0                  _GetSlopeCo
                  0x00f666                  _ReadEncoderPolarity
                  0x00f67e                  _usrProc
                  0x00f742                  _InitRecord
                  0x00f84e                  _getRecPtrAddr
                  0x00f88e                  _MarkBF
                  0x00f8d0                  _DoRecord
                  0x00faf8                  _RepeatInc_Save
                  0x00fc12                  _IsValEqual
                  0x00fc54                  _SkipRepeatToVal
                  0x00fd24                  _AppendNewRec
                  0x00fdb4                  _SaveARec
                  0x00fe84                  _SaveRecPtr
                  0x00fed6                  _RecordRecovery
                  0x00ff74                  _WriteRecBlock
                  0x00ffdc                  _CheckSucessive
                  0x0100fe                  _Reverse
                  0x010146                  _CompareTime
                  0x0101d6                  _IsRecTimeMatched
                  0x0102c8                  _getRecPtr
                  0x010340                  _InitCardRecord
                  0x01037a                  _UARTSendPkt
                  0x0103a2                  _UARTSendByte
                  0x0103f6                  _GetFileName
                  0x010482                  _SetHostBaudrate
                  0x0104f6                  _OpenUSBDisk
                  0x01054e                  _CloseDisk
                  0x0105a6                  _CreatFile
                  0x010670                  _GetUsbDiskResp
                  0x010714                  _WriteFile
                  0x01074a                  _CloseFile
                  0x0107da                  _ExportAllRecords
                  0x0108da                  _WriteTitle
                  0x010936                  _GetUFileSegTitle
                  0x010a38                  _ExportCxRec
                  0x010b30                  _ProgressBar
                  0x010b6a                  _ExportOnePage
                  0x010c86                  _ExportCfg
                  0x010cce                  _SaveToUsbDisk
                  0x010eb0                  _SaveTimeTo
                  0x010ee2                  _RestoreTimeFrom
                  0x010f1e                  _InitCalendar
                  0x010f5a                  _CheckCalendar
                  0x010f8e                  _Now
                  0x0110be                  _WriteCalendar
                  0x0111a2                  _DayEnd
                  0x0111cc                  _AddMinute
                  0x01121e                  _AddHour
                  0x01126a                  _AddDay
                  0x011320                  _AddInterval
                  0x011384                  _UpdateCalendar
                  0x0113c0                  _CleanDateTime
                  0x01141a                  _CalendarAutoAdjust
                  0x011572                  _IsSpaned
                  0x0115e2                  _CalendarProc
                  0x0116d2                  _RecordBelts
                  0x0117ee                  _end_CalendarProc
                  0x0117f8                  _Setup_SensorIn
                  0x011978                  _SavePort1Cfg
                  0x011aaa                  _LoadSensorSwitch
                  0x011b32                  _CheckDigits
                  0x011b8c                  _LoadRainAlarm
                  0x011c0c                  _LoadLevelAlarm
                  0x011cb0                  _LoadSlopeCo
                  0x011d46                  _LoadEncodePolarity
                  0x011dbc                  _SaveSensorSwitch
                  0x011e8e                  _SaveRainAlarm
                  0x011ede                  _SaveLevelAlarm
                  0x011f5a                  _SaveSlopeCo
                  0x011ffc                  _SaveEncodePolarity
                  0x012654                  _MakeMsg
                  0x012784                  _MakeTextMsg
                  0x01281e                  _PW_LCD_on
                  0x01283e                  _PW_LCD_off
                  0x01284e                  _lcd_init
                  0x012888                  _lcd_clear
                  0x012920                  _blight_on
                  0x0129c4                  _blight_off
                  0x012a68                  _lcd_puts
                  0x012b46                  _lcd_stable
                  0x012bd4                  _cursor_off
                  0x012bda                  _lcd_ack
                  0x012c5e                  _lcd_DrawQRCode
                  0x012d5a                  _UART1Init
                  0x012dd4                  _UART2Init
                  0x012e4e                  _UART3Init
                  0x012ec8                  _UART4Init
                  0x012f3e                  _InitINTx
                  0x012f90                  _InitCN
                  0x012fa6                  _InitCPU
                  0x013042                  _Timer1_Init_Function
                  0x013066                  _Timer2_on
                  0x01307e                  _Timer2_off
                  0x013088                  _InitIPL
                  0x0130da                  _SetIPL
                  0x01320a                  _spi_WriteByte
                  0x013246                  _spi_ReadByte
                  0x013286                  _mem_WriteEnable
                  0x013296                  _mem_WriteDisable
                  0x0132a6                  _mem_ReadStatus
                  0x0132c2                  _mem_WriteStatus
                  0x0132da                  _xm_SectorErase
                  0x013310                  _mem_ReadData
                  0x0133c2                  _FramLock
                  0x0133d8                  _FramUnlock
                  0x0133ea                  _mem_WriteData
                  0x0134c4                  _mem_CheckWriting
                  0x013556                  _WaitMemReady
                  0x013574                  _WaitXmReadyForErase
                  0x0135a4                  _WaitMemReadyForErase
                  0x0135d6                  _cs
                  0x013608                  _cd
                  0x013620                  _ReadRecArray
                  0x013680                  _BEIDOU_Transmit
                  0x0137c6                  _BEIDOU_Chk
                  0x0137fe                  _BEIDOU_TimeAutoAdjust
                  0x01383c                  _BEIDOU_GetTime
                  0x013938                  _Is_BEIDOU_Ready
                  0x01397a                  _BEIDOU_ok
                  0x013a3c                  _getBDQ
                  0x013ab6                  _BDQ_to_UINT
                  0x013ac6                  _CheckNIHAO
                  0x013b42                  _RxFromSensor_NIHAO
                  0x013b9a                  _IsException
                  0x013bce                  _NIHAO2Belt
                  0x013cce                  _RxFromSensor
                  0x013de0                  _RWSerialSensor
                  0x013ed4                  _BeltBeRead
                  0x014050                  _BELTs
                  0x0140f2                  _Val2BELT
                  0x014132                  _DoCompact
                  0x0141d6                  _BitMask
                  0x014212                  _LenOfBits
                  0x014270                  _tickDelay
                  0x01428a                  _SetSpeed
                  0x0142b8                  _TouchReset
                  0x0142fa                  _WriteBit
                  0x01432c                  _ReadBit
                  0x014368                  _WriteByte
                  0x01438c                  _ReadByte
                  0x0143c0                  _DS18B20_ReadROM
                  0x0143fa                  _DS18B20_ReadTemp
                  0x014450                  _CRC8_1BIT
                  0x0144c8                  _ReadID
                  0x0144f8                  _ReadTemp
                  0x014580                  _Init_SPI_ch376
                  0x0145b8                  _vLedTest_ms
                  0x0145ca                  _vLedTest_s
                  0x0145d8                  _mStopIfError
                  0x0146d4                  _CH376_PORT_INIT
                  0x0146de                  _spi_WriteByte_ch376
                  0x01471a                  _spi_ReadByte_ch376
                  0x014758                  _xEndCH376Cmd
                  0x014760                  _xWriteCH376Cmd
                  0x01477c                  _xWriteCH376Data
                  0x01478e                  _xReadCH376Data
                  0x0147a0                  _Query376Interrupt
                  0x0147b6                  _mInitCH376Host
                  0x014800                  _CH376_Reset
                  0x01482c                  _CH376_SleepEnable
                  0x014860                  _ReadPort
                  0x01496e                  _InstWrite
                  0x014a32                  _ReadSerialPort23
                  0x014aa4                  _IsC0Alive
                  0x014aea                  _SetC0Dead
                  0x014af8                  _KillC0s
                  0x014b20                  _R4571_init
                  0x014b30                  _R4571_WriteByte
                  0x014b72                  _R4571_ReadByte
                  0x014bb0                  _R4571_Write_Data
                  0x014c86                  _R4571_Read_Data
                  0x014d7a                  _GPRS_transmit
                  0x014da0                  _GPRS_end
                  0x014e28                  _GetGprsResp
                  0x014e80                  _CheckGprsResp
                  0x014edc                  _ConnectTcpServer
                  0x014f2a                  _GPRM_end
                  0x014f52                  _XModemRet
                  0x014fa0                  _PowerRestore
                  0x014fb4                  _CheckVoltage
                  0x014fe0                  _DspVoltageWarning
                  0x015046                  _PowerTrap
                  0x0150c0                  _isWDTWU
                  0x0150d6                  _WifiConnection
                  0x0151f6                  _initAdc1
                  0x015242                  _initAdcKey
                  0x01528e                  _initTmr3
                  0x0152a2                  _VoltageNow
                  0x0152ee                  _DEBUG

External Symbols in Program Memory (by name):

                  0x00af92                  _AT_creg
                  0x00e006                  _Abs
                  0x007ef6                  _Ack
                  0x01126a                  _AddDay
                  0x01121e                  _AddHour
                  0x011320                  _AddInterval
                  0x0111cc                  _AddMinute
                  0x00fd24                  _AppendNewRec
                  0x007d4e                  _Authen
                  0x013ab6                  _BDQ_to_UINT
                  0x0137c6                  _BEIDOU_Chk
                  0x01383c                  _BEIDOU_GetTime
                  0x0137fe                  _BEIDOU_TimeAutoAdjust
                  0x013680                  _BEIDOU_Transmit
                  0x01397a                  _BEIDOU_ok
                  0x014050                  _BELTs
                  0x013ed4                  _BeltBeRead
                  0x00dfc2                  _BinOfByte
                  0x006b6c                  _BinaryVisible
                  0x0141d6                  _BitMask
                  0x00c19a                  _BlinkOff
                  0x00b838                  _CH376ByteLocate
                  0x00b882                  _CH376ByteRead
                  0x00b900                  _CH376ByteWrite
                  0x00bb28                  _CH376CheckNameSum
                  0x00bdc0                  _CH376CreateLongName
                  0x00b60a                  _CH376DirCreate
                  0x00b81a                  _CH376DirInfoRead
                  0x00b82a                  _CH376DirInfoSave
                  0x00b97e                  _CH376DiskCapacity
                  0x00b59e                  _CH376DiskConnect
                  0x00b5b4                  _CH376DiskMount
                  0x00b9b2                  _CH376DiskQuery
                  0x00b580                  _CH376DiskReqSense
                  0x00b4d0                  _CH376EndDirInfo
                  0x00b808                  _CH376FileClose
                  0x00b5f0                  _CH376FileCreate
                  0x00b73e                  _CH376FileCreatePath
                  0x00b790                  _CH376FileErase
                  0x00b5c2                  _CH376FileOpen
                  0x00b686                  _CH376FileOpenDir
                  0x00b72c                  _CH376FileOpenPath
                  0x00b4ea                  _CH376GetDiskStatus
                  0x00b4dc                  _CH376GetFileSize
                  0x00b4f8                  _CH376GetIntStatus
                  0x00bc48                  _CH376GetLongName
                  0x00bb70                  _CH376LocateInUpDir
                  0x00ba86                  _CH376LongNameWrite
                  0x00b3ca                  _CH376Read32bitDat
                  0x00b28a                  _CH376ReadBlock
                  0x00b464                  _CH376ReadVar32
                  0x00b420                  _CH376ReadVar8
                  0x00ba44                  _CH376SecLocate
                  0x00b560                  _CH376SendCmdDatWaitInt
                  0x00b548                  _CH376SendCmdWaitInt
                  0x00b638                  _CH376SeparatePath
                  0x00b382                  _CH376SetFileName
                  0x00b30a                  _CH376WriteHostBlock
                  0x00b342                  _CH376WriteOfsBlock
                  0x00b2ca                  _CH376WriteReqBlock
                  0x00b47e                  _CH376WriteVar32
                  0x00b444                  _CH376WriteVar8
                  0x0146d4                  _CH376_PORT_INIT
                  0x014800                  _CH376_Reset
                  0x01482c                  _CH376_SleepEnable
                  0x00aa20                  _CLR_RX_IF
                  0x00aa5a                  _CLR_TX_IF
                  0x00cf34                  _CMC
                  0x00cf52                  _CMX
                  0x014450                  _CRC8_1BIT
                  0x00728c                  _CSQ_to_UINT
                  0x01141a                  _CalendarAutoAdjust
                  0x0115e2                  _CalendarProc
                  0x00840c                  _CardInit
                  0x008454                  _CardMount
                  0x008c5e                  _CardReadRec
                  0x00899c                  _CardWriteStr
                  0x00257a                  _ChargeManage
                  0x00de76                  _CheckCRC
                  0x010f5a                  _CheckCalendar
                  0x0027e6                  _CheckCfg
                  0x002580                  _CheckCfgValidation
                  0x011b32                  _CheckDigits
                  0x014e80                  _CheckGprsResp
                  0x013ac6                  _CheckNIHAO
                  0x00685c                  _CheckSM
                  0x00838a                  _CheckSetupAuthority
                  0x00ffdc                  _CheckSucessive
                  0x014fb4                  _CheckVoltage
                  0x0113c0                  _CleanDateTime
                  0x00a99e                  _CloseComPort
                  0x01054e                  _CloseDisk
                  0x01074a                  _CloseFile
                  0x001ed8                  _ClrBelt
                  0x00e7c8                  _ClrByte
                  0x00e7ec                  _ClrCfgBit
                  0x00aa94                  _ClrRxBuf
                  0x00ca40                  _ClrStr
                  0x00a49a                  _ClrUErr
                  0x0023ee                  _Com1Proc
                  0x00246c                  _Com2Proc
                  0x00b084                  _ComMaintenance
                  0x00ef98                  _CompareFLOAT
                  0x010146                  _CompareTime
                  0x00eebe                  _CompareUL
                  0x002332                  _Connect
                  0x0020e4                  _ConnectCell
                  0x014edc                  _ConnectTcpServer
                  0x00accc                  _CopyParaStr
                  0x0087a4                  _CreatCxCardFile
                  0x0105a6                  _CreatFile
                  0x00c11a                  _CursorBlink
                  0x0152ee                  _DEBUG
                  0x00dcc0                  _DIRECT_end
                  0x0143c0                  _DS18B20_ReadROM
                  0x0143fa                  _DS18B20_ReadTemp
                  0x00c934                  _DT2Str
                  0x00e024                  _DataCpy
                  0x00e09e                  _DataCpyrom2ram
                  0x0111a2                  _DayEnd
                  0x00e40e                  _DeCompactBelt
                  0x0066cc                  _Decode_SM_To_src
                  0x00dc60                  _DelayAfterComm
                  0x00defa                  _Delay_ms
                  0x00dee4                  _Delay_s
                  0x006974                  _DeleteSM
                  0x00885a                  _DeltaToSec
                  0x00adfc                  _DetectSetBaud
                  0x00cdd0                  _DigitToggle
                  0x0024a6                  _DirectAccess
                  0x00d884                  _DoBEIDOU
                  0x0082c4                  _DoCfgCRC
                  0x014132                  _DoCompact
                  0x00d8da                  _DoDIRECT
                  0x00cdca                  _DoEditCancel
                  0x00ce1a                  _DoEditFunc
                  0x00cdc4                  _DoEditOK
                  0x00d76a                  _DoGPRM
                  0x00d5ea                  _DoGPRS
                  0x00c6b8                  _DoKeyFunc
                  0x001f12                  _DoMeasurement
                  0x00aaba                  _DoReceive
                  0x00f8d0                  _DoRecord
                  0x00da4c                  _DoReport
                  0x00d98a                  _DoSM
                  0x00d932                  _DoUsWave
                  0x00d696                  _DoWifi
                  0x007f9e                  _DownLoadMap
                  0x00d520                  _DspFC
                  0x014fe0                  _DspVoltageWarning
                  0x00ced4                  _Editor
                  0x001e76                  _EndCom
                  0x00c21a                  _EndKeyPoll
                  0x0070fe                  _EndSM
                  0x00f04e                  _EventCondition
                  0x00ed02                  _EventRain
                  0x0107da                  _ExportAllRecords
                  0x010c86                  _ExportCfg
                  0x0093b2                  _ExportCfg2SDCard
                  0x010a38                  _ExportCxRec
                  0x010b6a                  _ExportOnePage
                  0x00d10e                  _FC_Proc
                  0x00df52                  _FillBufWith
                  0x00cafe                  _FillSpace
                  0x00c62e                  _FindDown
                  0x00e9b8                  _FindParaStr
                  0x00c526                  _FindRight
                  0x00e1be                  _FloatToStr
                  0x00c7ae                  _FormatDateTime
                  0x0022d6                  _FormatPSTN
                  0x0022c8                  _FormatSM
                  0x0022ba                  _FormatUltrashort
                  0x0133c2                  _FramLock
                  0x0133d8                  _FramUnlock
                  0x014f2a                  _GPRM_end
                  0x014da0                  _GPRS_end
                  0x014d7a                  _GPRS_transmit
                  0x009320                  _Gap2Sec
                  0x00e72c                  _GetByte
                  0x00de42                  _GetCRC
                  0x002678                  _GetCTable
                  0x00dc7c                  _GetComResp
                  0x00d586                  _GetComStr
                  0x00d340                  _GetComType
                  0x00c740                  _GetCurDateTime
                  0x00e550                  _GetDefaultValue
                  0x00d2e2                  _GetFC
                  0x0103f6                  _GetFileName
                  0x014e28                  _GetGprsResp
                  0x00d27e                  _GetINTC
                  0x00df42                  _GetMinute
                  0x0079b4                  _GetPageSize
                  0x007e94                  _GetResp
                  0x006658                  _GetSM
                  0x00f5f0                  _GetSlopeCo
                  0x007950                  _GetStartAddr
                  0x010936                  _GetUFileSegTitle
                  0x010670                  _GetUsbDiskResp
                  0x00679c                  _Get_sm_index
                  0x0065dc                  _Get_tel_number
                  0x0028d2                  _GoSleep
                  0x00f59c                  _GracodeToBinary
                  0x00b154                  _HeartBeat
                  0x00df7e                  _HexHiByte
                  0x00dfa2                  _HexLoByte
                  0x00a9b0                  _IPL_URX_INT
                  0x00d24e                  _IffcRepeated
                  0x00e5b6                  _InStr
                  0x00e65e                  _InStrChar
                  0x00e7ac                  _IncCount
                  0x00a7f0                  _IncPtrRx
                  0x00ea86                  _IncRain
                  0x00ab86                  _InitAllComTasks
                  0x012f90                  _InitCN
                  0x012fa6                  _InitCPU
                  0x010f1e                  _InitCalendar
                  0x008d8c                  _InitCardFiles
                  0x010340                  _InitCardRecord
                  0x00b042                  _InitCom
                  0x00ac08                  _InitComTask
                  0x00c294                  _InitCurXY
                  0x00c1d4                  _InitDsp
                  0x012f3e                  _InitINTx
                  0x013088                  _InitIPL
                  0x00ea64                  _InitInnerSensor
                  0x00ad16                  _InitModem_GPRM
                  0x00ad86                  _InitModem_GPRS
                  0x00ad78                  _InitModem_WIFI
                  0x00287e                  _InitPower
                  0x00f742                  _InitRecord
                  0x00a4d4                  _InitRx
                  0x00aade                  _InitTx
                  0x014580                  _Init_SPI_ch376
                  0x01496e                  _InstWrite
                  0x00211e                  _Inst_Analysis
                  0x00c998                  _Int2DoubleStr
                  0x00cf70                  _IntReports
                  0x014aa4                  _IsC0Alive
                  0x00a970                  _IsComOpen
                  0x00e056                  _IsDataSame
                  0x013b9a                  _IsException
                  0x00688e                  _IsMobileQuerying
                  0x0101d6                  _IsRecTimeMatched
                  0x00af5e                  _IsRingIn
                  0x00200e                  _IsRxOver
                  0x00e98a                  _IsSensorReady
                  0x011572                  _IsSpaned
                  0x00b18e                  _IsStrInStream
                  0x00e532                  _IsTimeUp
                  0x00b002                  _IsTransparantOver
                  0x00fc12                  _IsValEqual
                  0x013938                  _Is_BEIDOU_Ready
                  0x00298e                  _KeyDisplay
                  0x00c22c                  _KeyProc
                  0x014af8                  _KillC0s
                  0x00c456                  _LCDShow
                  0x014212                  _LenOfBits
                  0x00f49a                  _LevelCoder
                  0x002758                  _LoadCfgIfOk
                  0x011d46                  _LoadEncodePolarity
                  0x011c0c                  _LoadLevelAlarm
                  0x011b8c                  _LoadRainAlarm
                  0x011aaa                  _LoadSensorSwitch
                  0x011cb0                  _LoadSlopeCo
                  0x012654                  _MakeMsg
                  0x012784                  _MakeTextMsg
                  0x006328                  _Make_SM_Head
                  0x00f88e                  _MarkBF
                  0x00ce7e                  _MarkFunc
                  0x006504                  _Merge2Bytes
                  0x006c9e                  _MobileQueryResponse
                  0x00ae90                  _ModemRstIfNeeded
                  0x00e110                  _Module
                  0x00e716                  _MsgBox
                  0x013bce                  _NIHAO2Belt
                  0x00b160                  _NextTask
                  0x00ddca                  _Nops
                  0x010f8e                  _Now
                  0x00a98c                  _OpenComPort
                  0x0104f6                  _OpenUSBDisk
                  0x00c9ec                  _OutputStatus
                  0x01283e                  _PW_LCD_off
                  0x01281e                  _PW_LCD_on
                  0x007a08                  _PageSize
                  0x008216                  _PostDownload
                  0x001ff2                  _PostPortReading
                  0x002586                  _PowerBeforeSleep
                  0x014fa0                  _PowerRestore
                  0x015046                  _PowerTrap
                  0x001fe8                  _PrePortReading
                  0x010b30                  _ProgressBar
                  0x00eb7c                  _PutCxInBelt
                  0x005dee                  _QR
                  0x0147a0                  _Query376Interrupt
                  0x014b72                  _R4571_ReadByte
                  0x014c86                  _R4571_Read_Data
                  0x014b30                  _R4571_WriteByte
                  0x014bb0                  _R4571_Write_Data
                  0x014b20                  _R4571_init
                  0x00a606                  _RS232_off
                  0x00a5dc                  _RS232_on
                  0x013de0                  _RWSerialSensor
                  0x00a58c                  _RX_BUF0
                  0x00a5b4                  _RX_BUF_END
                  0x00a630                  _RX_IE
                  0x00a874                  _RX_IE_OFF
                  0x00a83c                  _RX_IE_ON
                  0x01432c                  _ReadBit
                  0x01438c                  _ReadByte
                  0x00e74c                  _ReadCount
                  0x00f408                  _ReadEncoder
                  0x00f666                  _ReadEncoderPolarity
                  0x0144c8                  _ReadID
                  0x014860                  _ReadPort
                  0x013620                  _ReadRecArray
                  0x008f76                  _ReadSDRecord
                  0x014a32                  _ReadSerialPort23
                  0x0144f8                  _ReadTemp
                  0x0116d2                  _RecordBelts
                  0x00fed6                  _RecordRecovery
                  0x00cb5c                  _Refresh_bufLCD_Cx
                  0x00faf8                  _RepeatInc_Save
                  0x006bd6                  _RepeatSM
                  0x0069e6                  _Reserve_6_bits
                  0x00e8fe                  _ResetPeri
                  0x00e996                  _ResetSensor
                  0x00e9a8                  _Restart
                  0x010ee2                  _RestoreTimeFrom
                  0x0100fe                  _Reverse
                  0x002474                  _RingReport
                  0x013cce                  _RxFromSensor
                  0x013b42                  _RxFromSensor_NIHAO
                  0x00253e                  _RxPinLocked
                  0x00712c                  _SM_ReportError
                  0x005f4c                  _SM_process
                  0x00fdb4                  _SaveARec
                  0x00768c                  _SaveBlock
                  0x00834e                  _SaveCfg
                  0x011ffc                  _SaveEncodePolarity
                  0x011ede                  _SaveLevelAlarm
                  0x007330                  _SaveMap
                  0x011978                  _SavePort1Cfg
                  0x011e8e                  _SaveRainAlarm
                  0x00fe84                  _SaveRecPtr
                  0x00735c                  _SaveSegs
                  0x011dbc                  _SaveSensorSwitch
                  0x011f5a                  _SaveSlopeCo
                  0x010eb0                  _SaveTimeTo
                  0x010cce                  _SaveToUsbDisk
                  0x00ccd8                  _Scroll
                  0x00e372                  _Seg2Float
                  0x00ca4e                  _Seg2Str
                  0x006bb2                  _SendAT
                  0x00614c                  _SendBackSM
                  0x006998                  _Send_AT_CMGS
                  0x002004                  _SensorIntReports
                  0x00a568                  _Serial_End_Tx
                  0x00a44e                  _Serial_Setup
                  0x00a3c2                  _Serial_Transmit
                  0x00dde4                  _Serial_TransmitHL
                  0x014aea                  _SetC0Dead
                  0x00e826                  _SetCfgBit
                  0x00a9fa                  _SetComTask
                  0x010482                  _SetHostBaudrate
                  0x0130da                  _SetIPL
                  0x01428a                  _SetSpeed
                  0x00a7aa                  _Set_RxPtr
                  0x0117f8                  _Setup_SensorIn
                  0x00f55c                  _Shift8bits
                  0x002250                  _ShowDownResult
                  0x00763a                  _SkipParaStr
                  0x00fc54                  _SkipRepeatToVal
                  0x00e854                  _Split
                  0x00c202                  _StartKeyAD
                  0x0025f8                  _StartScreen
                  0x001f88                  _StartSensors
                  0x0022e4                  _StripOffComHeader
                  0x001ea6                  _SwitchToComport
                  0x002646                  _SystemGuard
                  0x008ffa                  _TFRecord
                  0x007a34                  _TREG_Authentication
                  0x00a67e                  _TRMT
                  0x00a8ae                  _TX_IE
                  0x00a936                  _TX_IE_OFF
                  0x00a8fc                  _TX_IE_ON
                  0x002890                  _TaskLine
                  0x009228                  _TfCardProc
                  0x00d3fc                  _TimeFit
                  0x00e0d0                  _TimeStampCpy
                  0x009240                  _TimeStr2Struct
                  0x013042                  _Timer1_Init_Function
                  0x01307e                  _Timer2_off
                  0x013066                  _Timer2_on
                  0x0142b8                  _TouchReset
                  0x007c8e                  _TranmitHead
                  0x00708c                  _Transmit
                  0x00e8dc                  _TransmitBytes
                  0x006fce                  _TransmitCSQ
                  0x006ef4                  _TransmitHZdigits
                  0x006f56                  _TransmitId
                  0x007006                  _TransmitMQuery_head
                  0x006c0c                  _TransmitPARA
                  0x007b26                  _TransmitPage
                  0x00e8be                  _TransmitStr
                  0x006e68                  _TransmitTitle
                  0x006ea6                  _TransmitValue
                  0x006f84                  _TransmitVoltage
                  0x0020dc                  _TriggerPort
                  0x00e15a                  _Txt2Bin
                  0x012d5a                  _UART1Init
                  0x012dd4                  _UART2Init
                  0x012e4e                  _UART3Init
                  0x012ec8                  _UART4Init
                  0x0103a2                  _UARTSendByte
                  0x01037a                  _UARTSendPkt
                  0x00a6cc                  _URXDA
                  0x00a726                  _URXREG
                  0x001a40                  _U_Rx
                  0x0077d4                  _UpLoadMap
                  0x011384                  _UpdateCalendar
                  0x00eac4                  _UserBelt
                  0x00dd20                  _Val
                  0x0140f2                  _Val2BELT
                  0x00e698                  _ValueHex
                  0x00e6c4                  _ValueHex2
                  0x0152a2                  _VoltageNow
                  0x0080ec                  _WR_proc
                  0x00b514                  _Wait376Interrupt
                  0x013556                  _WaitMemReady
                  0x0135a4                  _WaitMemReadyForErase
                  0x002480                  _WaitSensorEcho
                  0x013574                  _WaitXmReadyForErase
                  0x00caf8                  _Waiting_BDQ
                  0x00caf2                  _Waiting_CSQ
                  0x0150d6                  _WifiConnection
                  0x0142fa                  _WriteBit
                  0x014368                  _WriteByte
                  0x0110be                  _WriteCalendar
                  0x00e6f8                  _WriteCfg
                  0x00e786                  _WriteCount
                  0x010714                  _WriteFile
                  0x00ff74                  _WriteRecBlock
                  0x0108da                  _WriteTitle
                  0x00c2ca                  _Write_DspBuf
                  0x00dd76                  _X
                  0x014f52                  _XModemRet
                  0x001cf4                  __ADC1Interrupt
                  0x001e64                  __AddressError
                  0x001c8c                  __CNInterrupt
                  0x002cf8                  __DefaultInterrupt
                  0x001c3a                  __INT1Interrupt
                  0x001de4                  __INT2Interrupt
                  0x001e2c                  __INT3Interrupt
                  0x001e4a                  __LVDInterrupt
                  0x001e70                  __MathError
                  0x001e5e                  __OscillatorFail
                  0x001e6a                  __StackError
                  0x0019b4                  __T2Interrupt
                  0x001b06                  __U1RXInterrupt
                  0x001b9c                  __U1TXInterrupt
                  0x001b38                  __U2RXInterrupt
                  0x001be2                  __U2TXInterrupt
                  0x001b6a                  __U3RXInterrupt
                  0x001c28                  __U4RXInterrupt
                  0x0054c4                  ___adddf3
                  0x002d58                  ___addsf3
                  0x0055d2                  ___divdf3
                  0x005b62                  ___divdi3
                  0x005686                  ___divsf3
                  0x0055be                  ___eqdf2
                  0x002e12                  ___eqsf2
                  0x00579e                  ___extendsfdf2
                  0x002e1a                  ___fixsfsi
                  0x0057dc                  ___fixunsdfdi
                  0x002e5c                  ___fixunssfsi
                  0x005d6a                  ___floatdidf
                  0x005d8a                  ___floatdisf
                  0x00583e                  ___floatsidf
                  0x005844                  ___floatsisf
                  0x00584a                  ___floatundidf
                  0x002ffe                  ___floatundisf
                  0x002e92                  ___floatunsisf
                  0x0055c8                  ___gedf2
                  0x002e16                  ___gesf2
                  0x0055c8                  ___gtdf2
                  0x002e16                  ___gtsf2
                  0x0055be                  ___ledf2
                  0x002e12                  ___lesf2
                  0x0055be                  ___ltdf2
                  0x002e12                  ___ltsf2
                  0x005bc2                  ___moddi3
                  0x002f3c                  ___modsi3
                  0x0058a6                  ___muldf3
                  0x005c1e                  ___muldi3
                  0x0059ea                  ___mulp32eds3
                  0x0059ea                  ___mulp32peds3
                  0x002f5a                  ___mulsf3
                  0x0059ea                  ___mulsi3
                  0x00570a                  ___nedf2
                  0x005990                  ___subdf3
                  0x002d56                  ___subsf3
                  0x005994                  ___truncdfsf2
                  0x005b4c                  ___udivdi3
                  0x005a68                  ___udivmoddi3
                  0x005b5a                  ___umoddi3
                  0x002fc2                  ___umodsi3
                  0x005daa                  ___umuldi3
                  0x005cdc                  __dPropagateNaN
                  0x001956                  __data_init
                  0x001956                  __data_init_standard
                  0x003c9a                  __datof
                  0x005c8a                  __dcompare
                  0x005714                  __dpack
                  0x00578e                  __dreturnNaN
                  0x003a5a                  __dstrtod
                  0x005cf8                  __dtype
                  0x005d1c                  __dunpack
                  0x00576c                  __dunpack2
                  0x005794                  __dunpack2exit
                  0x002f1c                  __fPropagateNaN
                  0x002f2e                  __fbopExit
                  0x002f36                  __fbopReturnNaN
                  0x002fc8                  __fcompare
                  0x0051c0                  __filbuf
                  0x002e96                  __fpack
                  0x005c70                  __frexpf
                  0x002ee2                  __funpack
                  0x002f0c                  __funpack2
                  0x001946                  __psv_init
                  0x001920                  __resetPRI
                  0x003c9e                  __sprintf_cdfFnopsuxX
                  0x003c9e                  __sprintf_cdfFnopuxX
                  0x003c9e                  __sprintf_cdnopsuxX
                  0x003c9e                  __sprintf_cdnopuxX
                  0x003c9e                  __sprintf_fF
                  0x003cca                  __sscanf_cdfFnopsuxX
                  0x003cca                  __sscanf_cdfFnopuxX
                  0x003cca                  __sscanf_cdnopsuxX
                  0x003cca                  __sscanf_cdnopuxX
                  0x004258                  __vfprintf_cdfFnopsuxX
                  0x004258                  __vfprintf_cdfFnopuxX
                  0x004258                  __vfprintf_cdnopsuxX
                  0x004258                  __vfprintf_cdnopuxX
                  0x004258                  __vfprintf_fF
                  0x003d4a                  __vfscanf_cdfFnopsuxX
                  0x0036a4                  __vfscanf_cdfFnopuxX
                  0x004eb2                  __vfscanf_cdnopsuxX
                  0x003398                  __vfscanf_cdnopuxX
                  0x00324a                  _atof
                  0x00324e                  _atoi
                  0x00328c                  _atol
                  0x00f19a                  _beltEncoder
                  0x00f0e6                  _beltRain
                  0x0129c4                  _blight_off
                  0x012920                  _blight_on
                  0x00e140                  _btoa
                  0x013608                  _cd
                  0x0135d6                  _cs
                  0x012bd4                  _cursor_off
                  0x00df12                  _delay_us
                  0x0117ee                  _end_CalendarProc
                  0x00531c                  _fflush
                  0x00515a                  _fgetc
                  0x0058a0                  _frexpf
                  0x013a3c                  _getBDQ
                  0x00e4ec                  _getC0
                  0x00eb4c                  _getCOMx
                  0x00720a                  _getCSQ
                  0x00e508                  _getCX
                  0x00d218                  _getChannel
                  0x00ed8a                  _getCmpType
                  0x00762e                  _getDEST
                  0x007584                  _getDT
                  0x00aed2                  _getIp
                  0x00c26e                  _getKey
                  0x008578                  _getLongName
                  0x007478                  _getPackStr
                  0x00af1a                  _getPort
                  0x008ecc                  _getRecPosition
                  0x0102c8                  _getRecPtr
                  0x00f84e                  _getRecPtrAddr
                  0x009146                  _getRecordStr
                  0x00f2b0                  _getRightDay
                  0x00f270                  _getRightHour
                  0x00f234                  _getRightMinute
                  0x00a76c                  _getRxPtr
                  0x008780                  _getSDCfgLen
                  0x0074b8                  _getSLU
                  0x0084fa                  _getShortName
                  0x00de04                  _getULNG
                  0x00ee5e                  _getVal_FLOAT
                  0x00ee08                  _getVal_ULNG
                  0x007f94                  _getXPara
                  0x00ea2e                  _get_RecordStartTime
                  0x0085fa                  _get_SDCardStartTime
                  0x007aa2                  _getiC0iCx
                  0x0088ee                  _hTime2Sec
                  0x0151f6                  _initAdc1
                  0x015242                  _initAdcKey
                  0x01528e                  _initTmr3
                  0x0150c0                  _isWDTWU
                  0x002cfc                  _isalpha
                  0x002d10                  _isspace
                  0x002d20                  _isupper
                  0x002d2c                  _isxdigit
                  0x012c5e                  _lcd_DrawQRCode
                  0x012bda                  _lcd_ack
                  0x012888                  _lcd_clear
                  0x01284e                  _lcd_init
                  0x012a68                  _lcd_puts
                  0x012b46                  _lcd_stable
                  0x0147b6                  _mInitCH376Host
                  0x0145d8                  _mStopIfError
                  0x0029da                  _main
                  0x0134c4                  _mem_CheckWriting
                  0x013310                  _mem_ReadData
                  0x0132a6                  _mem_ReadStatus
                  0x0133ea                  _mem_WriteData
                  0x013296                  _mem_WriteDisable
                  0x013286                  _mem_WriteEnable
                  0x0132c2                  _mem_WriteStatus
                  0x0032e2                  _memset
                  0x00df2c                  _pureDelay_ms
                  0x008692                  _set_CardStartTimeInCfg
                  0x00e9e4                  _set_RecordStartTime
                  0x013246                  _spi_ReadByte
                  0x01471a                  _spi_ReadByte_ch376
                  0x01320a                  _spi_WriteByte
                  0x0146de                  _spi_WriteByte_ch376
                  0x00e4c4                  _str_to_ram
                  0x0032f0                  _strcat
                  0x003306                  _strchr
                  0x00331a                  _strcpy
                  0x003326                  _strlen
                  0x00305c                  _strtod
                  0x014270                  _tickDelay
                  0x002d48                  _tolower
                  0x0052e4                  _ungetc
                  0x00f67e                  _usrProc
                  0x00f2f4                  _usrSensorRecord
                  0x0145b8                  _vLedTest_ms
                  0x0145ca                  _vLedTest_s
                  0x014758                  _xEndCH376Cmd
                  0x01478e                  _xReadCH376Data
                  0x014760                  _xWriteCH376Cmd
                  0x01477c                  _xWriteCH376Data
                  0x0132da                  _xm_SectorErase

Memory Configuration

Name             Origin             Length             Attributes
data             0x000800           0x004000           a !xr
reset            0x000000           0x000004  
ivt              0x000004           0x0000fc  
_reserved        0x000100           0x000004  
aivt             0x000104           0x0000fc  
program          0x000200           0x02a9f6           xr
CONFIG3          0x02abfa           0x000002  
CONFIG2          0x02abfc           0x000002  
CONFIG1          0x02abfe           0x000002  
*default*        0x000000           0xffffffff  

Linker script and memory map

LOAD build/default/production/_ext/1360937237/Adc.o
LOAD build/default/production/_ext/1360937237/Calendar.o
LOAD build/default/production/_ext/1360937237/Comm232.o
LOAD build/default/production/_ext/1360937237/DEBUG.o
LOAD build/default/production/_ext/1360937237/DS18B20.o
LOAD build/default/production/_ext/1360937237/In_Sensor.o
LOAD build/default/production/_ext/1360937237/In_Setup.o
LOAD build/default/production/_ext/1360937237/In_Sys.o
LOAD build/default/production/_ext/1360937237/Init.o
LOAD build/default/production/_ext/1360937237/Lcd.o
LOAD build/default/production/_ext/1360937237/Main.o
LOAD build/default/production/_ext/1360937237/MakeMsg.o
LOAD build/default/production/_ext/1360937237/Power.o
LOAD build/default/production/_ext/1360937237/R4571.o
LOAD build/default/production/_ext/1360937237/ReadPort.o
LOAD build/default/production/_ext/1360937237/Record.o
LOAD build/default/production/_ext/1360937237/Regist.o
LOAD build/default/production/_ext/1360937237/Reports.o
LOAD build/default/production/_ext/1360937237/SerialSensor.o
LOAD build/default/production/_ext/1360937237/Spi.o
LOAD build/default/production/_ext/1360937237/Sub.o
LOAD build/default/production/_ext/1360937237/TF_Ch376Func.o
LOAD build/default/production/_ext/1360937237/TF_FileSys.o
LOAD build/default/production/_ext/1360937237/TF_main.o
LOAD build/default/production/_ext/1360937237/Usb_disk.o
LOAD build/default/production/_ext/1360937237/cmBeidou.o
LOAD build/default/production/_ext/1360937237/cmGprs.o
LOAD build/default/production/_ext/1360937237/cmGsmSm.o
LOAD build/default/production/_ext/1360937237/DispKey.o
LOAD build/default/production/_ext/1360937237/cmWifi.o
LOAD build/default/production/ezbl_integration/ex_boot_uart.merge.o
                    0x0001                  __MPLAB_BUILD = 0x1
LOAD c:/program files (x86)/microchip/xc16/v1.20/bin/bin/../../lib/PIC24F\libpPIC24Fxxx-elf.a
                    0x2abfa                  __CONFIG3 = 0x2abfa
                    0x2abfc                  __CONFIG2 = 0x2abfc
                    0x2abfe                  __CONFIG1 = 0x2abfe
                    0x0004                  __IVT_BASE = 0x4
                    0x0104                  __AIVT_BASE = 0x104
                    0x0800                  __DATA_BASE = 0x800
                    0x4000                  __DATA_LENGTH = 0x4000
                    0x0200                  __CODE_BASE = 0x200
                    0x2a9f8                  __CODE_LENGTH = 0x2a9f8
                    0x0000                  WREG0 = 0x0
                    0x0000                  _WREG0 = 0x0
                    0x0002                  WREG1 = 0x2
                    0x0002                  _WREG1 = 0x2
                    0x0004                  WREG2 = 0x4
                    0x0004                  _WREG2 = 0x4
                    0x0006                  WREG3 = 0x6
                    0x0006                  _WREG3 = 0x6
                    0x0008                  WREG4 = 0x8
                    0x0008                  _WREG4 = 0x8
                    0x000a                  WREG5 = 0xa
                    0x000a                  _WREG5 = 0xa
                    0x000c                  WREG6 = 0xc
                    0x000c                  _WREG6 = 0xc
                    0x000e                  WREG7 = 0xe
                    0x000e                  _WREG7 = 0xe
                    0x0010                  WREG8 = 0x10
                    0x0010                  _WREG8 = 0x10
                    0x0012                  WREG9 = 0x12
                    0x0012                  _WREG9 = 0x12
                    0x0014                  WREG10 = 0x14
                    0x0014                  _WREG10 = 0x14
                    0x0016                  WREG11 = 0x16
                    0x0016                  _WREG11 = 0x16
                    0x0018                  WREG12 = 0x18
                    0x0018                  _WREG12 = 0x18
                    0x001a                  WREG13 = 0x1a
                    0x001a                  _WREG13 = 0x1a
                    0x001c                  WREG14 = 0x1c
                    0x001c                  _WREG14 = 0x1c
                    0x001e                  WREG15 = 0x1e
                    0x001e                  _WREG15 = 0x1e
                    0x0020                  SPLIM = 0x20
                    0x0020                  _SPLIM = 0x20
                    0x002e                  PCL = 0x2e
                    0x002e                  _PCL = 0x2e
                    0x0030                  PCH = 0x30
                    0x0030                  _PCH = 0x30
                    0x0032                  TBLPAG = 0x32
                    0x0032                  _TBLPAG = 0x32
                    0x0034                  PSVPAG = 0x34
                    0x0034                  _PSVPAG = 0x34
                    0x0036                  RCOUNT = 0x36
                    0x0036                  _RCOUNT = 0x36
                    0x0042                  SR = 0x42
                    0x0042                  _SR = 0x42
                    0x0042                  _SRbits = 0x42
                    0x0044                  CORCON = 0x44
                    0x0044                  _CORCON = 0x44
                    0x0044                  _CORCONbits = 0x44
                    0x0052                  DISICNT = 0x52
                    0x0052                  _DISICNT = 0x52
                    0x0054                  CNPD1 = 0x54
                    0x0054                  _CNPD1 = 0x54
                    0x0054                  _CNPD1bits = 0x54
                    0x0056                  CNPD2 = 0x56
                    0x0056                  _CNPD2 = 0x56
                    0x0056                  _CNPD2bits = 0x56
                    0x0058                  CNPD3 = 0x58
                    0x0058                  _CNPD3 = 0x58
                    0x0058                  _CNPD3bits = 0x58
                    0x005a                  CNPD4 = 0x5a
                    0x005a                  _CNPD4 = 0x5a
                    0x005a                  _CNPD4bits = 0x5a
                    0x005c                  CNPD5 = 0x5c
                    0x005c                  _CNPD5 = 0x5c
                    0x005c                  _CNPD5bits = 0x5c
                    0x005e                  CNPD6 = 0x5e
                    0x005e                  _CNPD6 = 0x5e
                    0x005e                  _CNPD6bits = 0x5e
                    0x0060                  CNEN1 = 0x60
                    0x0060                  _CNEN1 = 0x60
                    0x0060                  _CNEN1bits = 0x60
                    0x0062                  CNEN2 = 0x62
                    0x0062                  _CNEN2 = 0x62
                    0x0062                  _CNEN2bits = 0x62
                    0x0064                  CNEN3 = 0x64
                    0x0064                  _CNEN3 = 0x64
                    0x0064                  _CNEN3bits = 0x64
                    0x0066                  CNEN4 = 0x66
                    0x0066                  _CNEN4 = 0x66
                    0x0066                  _CNEN4bits = 0x66
                    0x0068                  CNEN5 = 0x68
                    0x0068                  _CNEN5 = 0x68
                    0x0068                  _CNEN5bits = 0x68
                    0x006a                  CNEN6 = 0x6a
                    0x006a                  _CNEN6 = 0x6a
                    0x006a                  _CNEN6bits = 0x6a
                    0x006c                  CNPU1 = 0x6c
                    0x006c                  _CNPU1 = 0x6c
                    0x006c                  _CNPU1bits = 0x6c
                    0x006e                  CNPU2 = 0x6e
                    0x006e                  _CNPU2 = 0x6e
                    0x006e                  _CNPU2bits = 0x6e
                    0x0070                  CNPU3 = 0x70
                    0x0070                  _CNPU3 = 0x70
                    0x0070                  _CNPU3bits = 0x70
                    0x0072                  CNPU4 = 0x72
                    0x0072                  _CNPU4 = 0x72
                    0x0072                  _CNPU4bits = 0x72
                    0x0074                  CNPU5 = 0x74
                    0x0074                  _CNPU5 = 0x74
                    0x0074                  _CNPU5bits = 0x74
                    0x0076                  CNPU6 = 0x76
                    0x0076                  _CNPU6 = 0x76
                    0x0076                  _CNPU6bits = 0x76
                    0x0080                  INTCON1 = 0x80
                    0x0080                  _INTCON1 = 0x80
                    0x0080                  _INTCON1bits = 0x80
                    0x0082                  INTCON2 = 0x82
                    0x0082                  _INTCON2 = 0x82
                    0x0082                  _INTCON2bits = 0x82
                    0x0084                  IFS0 = 0x84
                    0x0084                  _IFS0 = 0x84
                    0x0084                  _IFS0bits = 0x84
                    0x0086                  IFS1 = 0x86
                    0x0086                  _IFS1 = 0x86
                    0x0086                  _IFS1bits = 0x86
                    0x0088                  IFS2 = 0x88
                    0x0088                  _IFS2 = 0x88
                    0x0088                  _IFS2bits = 0x88
                    0x008a                  IFS3 = 0x8a
                    0x008a                  _IFS3 = 0x8a
                    0x008a                  _IFS3bits = 0x8a
                    0x008c                  IFS4 = 0x8c
                    0x008c                  _IFS4 = 0x8c
                    0x008c                  _IFS4bits = 0x8c
                    0x008e                  IFS5 = 0x8e
                    0x008e                  _IFS5 = 0x8e
                    0x008e                  _IFS5bits = 0x8e
                    0x0094                  IEC0 = 0x94
                    0x0094                  _IEC0 = 0x94
                    0x0094                  _IEC0bits = 0x94
                    0x0096                  IEC1 = 0x96
                    0x0096                  _IEC1 = 0x96
                    0x0096                  _IEC1bits = 0x96
                    0x0098                  IEC2 = 0x98
                    0x0098                  _IEC2 = 0x98
                    0x0098                  _IEC2bits = 0x98
                    0x009a                  IEC3 = 0x9a
                    0x009a                  _IEC3 = 0x9a
                    0x009a                  _IEC3bits = 0x9a
                    0x009c                  IEC4 = 0x9c
                    0x009c                  _IEC4 = 0x9c
                    0x009c                  _IEC4bits = 0x9c
                    0x009e                  IEC5 = 0x9e
                    0x009e                  _IEC5 = 0x9e
                    0x009e                  _IEC5bits = 0x9e
                    0x00a4                  IPC0 = 0xa4
                    0x00a4                  _IPC0 = 0xa4
                    0x00a4                  _IPC0bits = 0xa4
                    0x00a6                  IPC1 = 0xa6
                    0x00a6                  _IPC1 = 0xa6
                    0x00a6                  _IPC1bits = 0xa6
                    0x00a8                  IPC2 = 0xa8
                    0x00a8                  _IPC2 = 0xa8
                    0x00a8                  _IPC2bits = 0xa8
                    0x00aa                  IPC3 = 0xaa
                    0x00aa                  _IPC3 = 0xaa
                    0x00aa                  _IPC3bits = 0xaa
                    0x00ac                  IPC4 = 0xac
                    0x00ac                  _IPC4 = 0xac
                    0x00ac                  _IPC4bits = 0xac
                    0x00ae                  IPC5 = 0xae
                    0x00ae                  _IPC5 = 0xae
                    0x00ae                  _IPC5bits = 0xae
                    0x00b0                  IPC6 = 0xb0
                    0x00b0                  _IPC6 = 0xb0
                    0x00b0                  _IPC6bits = 0xb0
                    0x00b2                  IPC7 = 0xb2
                    0x00b2                  _IPC7 = 0xb2
                    0x00b2                  _IPC7bits = 0xb2
                    0x00b4                  IPC8 = 0xb4
                    0x00b4                  _IPC8 = 0xb4
                    0x00b4                  _IPC8bits = 0xb4
                    0x00b6                  IPC9 = 0xb6
                    0x00b6                  _IPC9 = 0xb6
                    0x00b6                  _IPC9bits = 0xb6
                    0x00b8                  IPC10 = 0xb8
                    0x00b8                  _IPC10 = 0xb8
                    0x00b8                  _IPC10bits = 0xb8
                    0x00ba                  IPC11 = 0xba
                    0x00ba                  _IPC11 = 0xba
                    0x00ba                  _IPC11bits = 0xba
                    0x00bc                  IPC12 = 0xbc
                    0x00bc                  _IPC12 = 0xbc
                    0x00bc                  _IPC12bits = 0xbc
                    0x00be                  IPC13 = 0xbe
                    0x00be                  _IPC13 = 0xbe
                    0x00be                  _IPC13bits = 0xbe
                    0x00c2                  IPC15 = 0xc2
                    0x00c2                  _IPC15 = 0xc2
                    0x00c2                  _IPC15bits = 0xc2
                    0x00c4                  IPC16 = 0xc4
                    0x00c4                  _IPC16 = 0xc4
                    0x00c4                  _IPC16bits = 0xc4
                    0x00c8                  IPC18 = 0xc8
                    0x00c8                  _IPC18 = 0xc8
                    0x00c8                  _IPC18bits = 0xc8
                    0x00ca                  IPC19 = 0xca
                    0x00ca                  _IPC19 = 0xca
                    0x00ca                  _IPC19bits = 0xca
                    0x00cc                  IPC20 = 0xcc
                    0x00cc                  _IPC20 = 0xcc
                    0x00cc                  _IPC20bits = 0xcc
                    0x00ce                  IPC21 = 0xce
                    0x00ce                  _IPC21 = 0xce
                    0x00ce                  _IPC21bits = 0xce
                    0x00d0                  IPC22 = 0xd0
                    0x00d0                  _IPC22 = 0xd0
                    0x00d0                  _IPC22bits = 0xd0
                    0x00d2                  IPC23 = 0xd2
                    0x00d2                  _IPC23 = 0xd2
                    0x00d2                  _IPC23bits = 0xd2
                    0x00e0                  INTTREG = 0xe0
                    0x00e0                  _INTTREG = 0xe0
                    0x00e0                  _INTTREGbits = 0xe0
                    0x0100                  TMR1 = 0x100
                    0x0100                  _TMR1 = 0x100
                    0x0102                  PR1 = 0x102
                    0x0102                  _PR1 = 0x102
                    0x0104                  T1CON = 0x104
                    0x0104                  _T1CON = 0x104
                    0x0104                  _T1CONbits = 0x104
                    0x0106                  TMR2 = 0x106
                    0x0106                  _TMR2 = 0x106
                    0x0108                  TMR3HLD = 0x108
                    0x0108                  _TMR3HLD = 0x108
                    0x010a                  TMR3 = 0x10a
                    0x010a                  _TMR3 = 0x10a
                    0x010c                  PR2 = 0x10c
                    0x010c                  _PR2 = 0x10c
                    0x010e                  PR3 = 0x10e
                    0x010e                  _PR3 = 0x10e
                    0x0110                  T2CON = 0x110
                    0x0110                  _T2CON = 0x110
                    0x0110                  _T2CONbits = 0x110
                    0x0112                  T3CON = 0x112
                    0x0112                  _T3CON = 0x112
                    0x0112                  _T3CONbits = 0x112
                    0x0114                  TMR4 = 0x114
                    0x0114                  _TMR4 = 0x114
                    0x0116                  TMR5HLD = 0x116
                    0x0116                  _TMR5HLD = 0x116
                    0x0118                  TMR5 = 0x118
                    0x0118                  _TMR5 = 0x118
                    0x011a                  PR4 = 0x11a
                    0x011a                  _PR4 = 0x11a
                    0x011c                  PR5 = 0x11c
                    0x011c                  _PR5 = 0x11c
                    0x011e                  T4CON = 0x11e
                    0x011e                  _T4CON = 0x11e
                    0x011e                  _T4CONbits = 0x11e
                    0x0120                  T5CON = 0x120
                    0x0120                  _T5CON = 0x120
                    0x0120                  _T5CONbits = 0x120
                    0x0140                  IC1CON1 = 0x140
                    0x0140                  _IC1CON1 = 0x140
                    0x0140                  _IC1CON1bits = 0x140
                    0x0142                  IC1CON2 = 0x142
                    0x0142                  _IC1CON2 = 0x142
                    0x0142                  _IC1CON2bits = 0x142
                    0x0144                  IC1BUF = 0x144
                    0x0144                  _IC1BUF = 0x144
                    0x0146                  IC1TMR = 0x146
                    0x0146                  _IC1TMR = 0x146
                    0x0148                  IC2CON1 = 0x148
                    0x0148                  _IC2CON1 = 0x148
                    0x0148                  _IC2CON1bits = 0x148
                    0x014a                  IC2CON2 = 0x14a
                    0x014a                  _IC2CON2 = 0x14a
                    0x014a                  _IC2CON2bits = 0x14a
                    0x014c                  IC2BUF = 0x14c
                    0x014c                  _IC2BUF = 0x14c
                    0x014e                  IC2TMR = 0x14e
                    0x014e                  _IC2TMR = 0x14e
                    0x0150                  IC3CON1 = 0x150
                    0x0150                  _IC3CON1 = 0x150
                    0x0150                  _IC3CON1bits = 0x150
                    0x0152                  IC3CON2 = 0x152
                    0x0152                  _IC3CON2 = 0x152
                    0x0152                  _IC3CON2bits = 0x152
                    0x0154                  IC3BUF = 0x154
                    0x0154                  _IC3BUF = 0x154
                    0x0156                  IC3TMR = 0x156
                    0x0156                  _IC3TMR = 0x156
                    0x0158                  IC4CON1 = 0x158
                    0x0158                  _IC4CON1 = 0x158
                    0x0158                  _IC4CON1bits = 0x158
                    0x015a                  IC4CON2 = 0x15a
                    0x015a                  _IC4CON2 = 0x15a
                    0x015a                  _IC4CON2bits = 0x15a
                    0x015c                  IC4BUF = 0x15c
                    0x015c                  _IC4BUF = 0x15c
                    0x015e                  IC4TMR = 0x15e
                    0x015e                  _IC4TMR = 0x15e
                    0x0160                  IC5CON1 = 0x160
                    0x0160                  _IC5CON1 = 0x160
                    0x0160                  _IC5CON1bits = 0x160
                    0x0162                  IC5CON2 = 0x162
                    0x0162                  _IC5CON2 = 0x162
                    0x0162                  _IC5CON2bits = 0x162
                    0x0164                  IC5BUF = 0x164
                    0x0164                  _IC5BUF = 0x164
                    0x0166                  IC5TMR = 0x166
                    0x0166                  _IC5TMR = 0x166
                    0x0168                  IC6CON1 = 0x168
                    0x0168                  _IC6CON1 = 0x168
                    0x0168                  _IC6CON1bits = 0x168
                    0x016a                  IC6CON2 = 0x16a
                    0x016a                  _IC6CON2 = 0x16a
                    0x016a                  _IC6CON2bits = 0x16a
                    0x016c                  IC6BUF = 0x16c
                    0x016c                  _IC6BUF = 0x16c
                    0x016e                  IC6TMR = 0x16e
                    0x016e                  _IC6TMR = 0x16e
                    0x0170                  IC7CON1 = 0x170
                    0x0170                  _IC7CON1 = 0x170
                    0x0170                  _IC7CON1bits = 0x170
                    0x0172                  IC7CON2 = 0x172
                    0x0172                  _IC7CON2 = 0x172
                    0x0172                  _IC7CON2bits = 0x172
                    0x0174                  IC7BUF = 0x174
                    0x0174                  _IC7BUF = 0x174
                    0x0176                  IC7TMR = 0x176
                    0x0176                  _IC7TMR = 0x176
                    0x0178                  IC8CON1 = 0x178
                    0x0178                  _IC8CON1 = 0x178
                    0x0178                  _IC8CON1bits = 0x178
                    0x017a                  IC8CON2 = 0x17a
                    0x017a                  _IC8CON2 = 0x17a
                    0x017a                  _IC8CON2bits = 0x17a
                    0x017c                  IC8BUF = 0x17c
                    0x017c                  _IC8BUF = 0x17c
                    0x017e                  IC8TMR = 0x17e
                    0x017e                  _IC8TMR = 0x17e
                    0x0180                  IC9CON1 = 0x180
                    0x0180                  _IC9CON1 = 0x180
                    0x0180                  _IC9CON1bits = 0x180
                    0x0182                  IC9CON2 = 0x182
                    0x0182                  _IC9CON2 = 0x182
                    0x0182                  _IC9CON2bits = 0x182
                    0x0184                  IC9BUF = 0x184
                    0x0184                  _IC9BUF = 0x184
                    0x0186                  IC9TMR = 0x186
                    0x0186                  _IC9TMR = 0x186
                    0x0190                  OC1CON1 = 0x190
                    0x0190                  _OC1CON1 = 0x190
                    0x0190                  _OC1CON1bits = 0x190
                    0x0192                  OC1CON2 = 0x192
                    0x0192                  _OC1CON2 = 0x192
                    0x0192                  _OC1CON2bits = 0x192
                    0x0194                  OC1RS = 0x194
                    0x0194                  _OC1RS = 0x194
                    0x0196                  OC1R = 0x196
                    0x0196                  _OC1R = 0x196
                    0x0198                  OC1TMR = 0x198
                    0x0198                  _OC1TMR = 0x198
                    0x019a                  OC2CON1 = 0x19a
                    0x019a                  _OC2CON1 = 0x19a
                    0x019a                  _OC2CON1bits = 0x19a
                    0x019c                  OC2CON2 = 0x19c
                    0x019c                  _OC2CON2 = 0x19c
                    0x019c                  _OC2CON2bits = 0x19c
                    0x019e                  OC2RS = 0x19e
                    0x019e                  _OC2RS = 0x19e
                    0x01a0                  OC2R = 0x1a0
                    0x01a0                  _OC2R = 0x1a0
                    0x01a2                  OC2TMR = 0x1a2
                    0x01a2                  _OC2TMR = 0x1a2
                    0x01a4                  OC3CON1 = 0x1a4
                    0x01a4                  _OC3CON1 = 0x1a4
                    0x01a4                  _OC3CON1bits = 0x1a4
                    0x01a6                  OC3CON2 = 0x1a6
                    0x01a6                  _OC3CON2 = 0x1a6
                    0x01a6                  _OC3CON2bits = 0x1a6
                    0x01a8                  OC3RS = 0x1a8
                    0x01a8                  _OC3RS = 0x1a8
                    0x01aa                  OC3R = 0x1aa
                    0x01aa                  _OC3R = 0x1aa
                    0x01ac                  OC3TMR = 0x1ac
                    0x01ac                  _OC3TMR = 0x1ac
                    0x01ae                  OC4CON1 = 0x1ae
                    0x01ae                  _OC4CON1 = 0x1ae
                    0x01ae                  _OC4CON1bits = 0x1ae
                    0x01b0                  OC4CON2 = 0x1b0
                    0x01b0                  _OC4CON2 = 0x1b0
                    0x01b0                  _OC4CON2bits = 0x1b0
                    0x01b2                  OC4RS = 0x1b2
                    0x01b2                  _OC4RS = 0x1b2
                    0x01b4                  OC4R = 0x1b4
                    0x01b4                  _OC4R = 0x1b4
                    0x01b6                  OC4TMR = 0x1b6
                    0x01b6                  _OC4TMR = 0x1b6
                    0x01b8                  OC5CON1 = 0x1b8
                    0x01b8                  _OC5CON1 = 0x1b8
                    0x01b8                  _OC5CON1bits = 0x1b8
                    0x01ba                  OC5CON2 = 0x1ba
                    0x01ba                  _OC5CON2 = 0x1ba
                    0x01ba                  _OC5CON2bits = 0x1ba
                    0x01bc                  OC5RS = 0x1bc
                    0x01bc                  _OC5RS = 0x1bc
                    0x01be                  OC5R = 0x1be
                    0x01be                  _OC5R = 0x1be
                    0x01c0                  OC5TMR = 0x1c0
                    0x01c0                  _OC5TMR = 0x1c0
                    0x01c2                  OC6CON1 = 0x1c2
                    0x01c2                  _OC6CON1 = 0x1c2
                    0x01c2                  _OC6CON1bits = 0x1c2
                    0x01c4                  OC6CON2 = 0x1c4
                    0x01c4                  _OC6CON2 = 0x1c4
                    0x01c4                  _OC6CON2bits = 0x1c4
                    0x01c6                  OC6RS = 0x1c6
                    0x01c6                  _OC6RS = 0x1c6
                    0x01c8                  OC6R = 0x1c8
                    0x01c8                  _OC6R = 0x1c8
                    0x01ca                  OC6TMR = 0x1ca
                    0x01ca                  _OC6TMR = 0x1ca
                    0x01cc                  OC7CON1 = 0x1cc
                    0x01cc                  _OC7CON1 = 0x1cc
                    0x01cc                  _OC7CON1bits = 0x1cc
                    0x01ce                  OC7CON2 = 0x1ce
                    0x01ce                  _OC7CON2 = 0x1ce
                    0x01ce                  _OC7CON2bits = 0x1ce
                    0x01d0                  OC7RS = 0x1d0
                    0x01d0                  _OC7RS = 0x1d0
                    0x01d2                  OC7R = 0x1d2
                    0x01d2                  _OC7R = 0x1d2
                    0x01d4                  OC7TMR = 0x1d4
                    0x01d4                  _OC7TMR = 0x1d4
                    0x01d6                  OC8CON1 = 0x1d6
                    0x01d6                  _OC8CON1 = 0x1d6
                    0x01d6                  _OC8CON1bits = 0x1d6
                    0x01d8                  OC8CON2 = 0x1d8
                    0x01d8                  _OC8CON2 = 0x1d8
                    0x01d8                  _OC8CON2bits = 0x1d8
                    0x01da                  OC8RS = 0x1da
                    0x01da                  _OC8RS = 0x1da
                    0x01dc                  OC8R = 0x1dc
                    0x01dc                  _OC8R = 0x1dc
                    0x01de                  OC8TMR = 0x1de
                    0x01de                  _OC8TMR = 0x1de
                    0x01e0                  OC9CON1 = 0x1e0
                    0x01e0                  _OC9CON1 = 0x1e0
                    0x01e0                  _OC9CON1bits = 0x1e0
                    0x01e2                  OC9CON2 = 0x1e2
                    0x01e2                  _OC9CON2 = 0x1e2
                    0x01e2                  _OC9CON2bits = 0x1e2
                    0x01e4                  OC9RS = 0x1e4
                    0x01e4                  _OC9RS = 0x1e4
                    0x01e6                  OC9R = 0x1e6
                    0x01e6                  _OC9R = 0x1e6
                    0x01e8                  OC9TMR = 0x1e8
                    0x01e8                  _OC9TMR = 0x1e8
                    0x0200                  I2C1RCV = 0x200
                    0x0200                  _I2C1RCV = 0x200
                    0x0202                  I2C1TRN = 0x202
                    0x0202                  _I2C1TRN = 0x202
                    0x0204                  I2C1BRG = 0x204
                    0x0204                  _I2C1BRG = 0x204
                    0x0206                  I2C1CON = 0x206
                    0x0206                  _I2C1CON = 0x206
                    0x0206                  _I2C1CONbits = 0x206
                    0x0208                  I2C1STAT = 0x208
                    0x0208                  _I2C1STAT = 0x208
                    0x0208                  _I2C1STATbits = 0x208
                    0x020a                  I2C1ADD = 0x20a
                    0x020a                  _I2C1ADD = 0x20a
                    0x020c                  I2C1MSK = 0x20c
                    0x020c                  _I2C1MSK = 0x20c
                    0x0210                  I2C2RCV = 0x210
                    0x0210                  _I2C2RCV = 0x210
                    0x0212                  I2C2TRN = 0x212
                    0x0212                  _I2C2TRN = 0x212
                    0x0214                  I2C2BRG = 0x214
                    0x0214                  _I2C2BRG = 0x214
                    0x0216                  I2C2CON = 0x216
                    0x0216                  _I2C2CON = 0x216
                    0x0216                  _I2C2CONbits = 0x216
                    0x0218                  I2C2STAT = 0x218
                    0x0218                  _I2C2STAT = 0x218
                    0x0218                  _I2C2STATbits = 0x218
                    0x021a                  I2C2ADD = 0x21a
                    0x021a                  _I2C2ADD = 0x21a
                    0x021c                  I2C2MSK = 0x21c
                    0x021c                  _I2C2MSK = 0x21c
                    0x0220                  U1MODE = 0x220
                    0x0220                  _U1MODE = 0x220
                    0x0220                  _U1MODEbits = 0x220
                    0x0222                  U1STA = 0x222
                    0x0222                  _U1STA = 0x222
                    0x0222                  _U1STAbits = 0x222
                    0x0224                  U1TXREG = 0x224
                    0x0224                  _U1TXREG = 0x224
                    0x0226                  U1RXREG = 0x226
                    0x0226                  _U1RXREG = 0x226
                    0x0228                  U1BRG = 0x228
                    0x0228                  _U1BRG = 0x228
                    0x0230                  U2MODE = 0x230
                    0x0230                  _U2MODE = 0x230
                    0x0230                  _U2MODEbits = 0x230
                    0x0232                  U2STA = 0x232
                    0x0232                  _U2STA = 0x232
                    0x0232                  _U2STAbits = 0x232
                    0x0234                  U2TXREG = 0x234
                    0x0234                  _U2TXREG = 0x234
                    0x0236                  U2RXREG = 0x236
                    0x0236                  _U2RXREG = 0x236
                    0x0238                  U2BRG = 0x238
                    0x0238                  _U2BRG = 0x238
                    0x0240                  SPI1STAT = 0x240
                    0x0240                  _SPI1STAT = 0x240
                    0x0240                  _SPI1STATbits = 0x240
                    0x0242                  SPI1CON1 = 0x242
                    0x0242                  _SPI1CON1 = 0x242
                    0x0242                  _SPI1CON1bits = 0x242
                    0x0244                  SPI1CON2 = 0x244
                    0x0244                  _SPI1CON2 = 0x244
                    0x0244                  _SPI1CON2bits = 0x244
                    0x0248                  SPI1BUF = 0x248
                    0x0248                  _SPI1BUF = 0x248
                    0x0250                  U3MODE = 0x250
                    0x0250                  _U3MODE = 0x250
                    0x0250                  _U3MODEbits = 0x250
                    0x0252                  U3STA = 0x252
                    0x0252                  _U3STA = 0x252
                    0x0252                  _U3STAbits = 0x252
                    0x0254                  U3TXREG = 0x254
                    0x0254                  _U3TXREG = 0x254
                    0x0256                  U3RXREG = 0x256
                    0x0256                  _U3RXREG = 0x256
                    0x0258                  U3BRG = 0x258
                    0x0258                  _U3BRG = 0x258
                    0x0260                  SPI2STAT = 0x260
                    0x0260                  _SPI2STAT = 0x260
                    0x0260                  _SPI2STATbits = 0x260
                    0x0262                  SPI2CON1 = 0x262
                    0x0262                  _SPI2CON1 = 0x262
                    0x0262                  _SPI2CON1bits = 0x262
                    0x0264                  SPI2CON2 = 0x264
                    0x0264                  _SPI2CON2 = 0x264
                    0x0264                  _SPI2CON2bits = 0x264
                    0x0268                  SPI2BUF = 0x268
                    0x0268                  _SPI2BUF = 0x268
                    0x0270                  I2C3RCV = 0x270
                    0x0270                  _I2C3RCV = 0x270
                    0x0272                  I2C3TRN = 0x272
                    0x0272                  _I2C3TRN = 0x272
                    0x0274                  I2C3BRG = 0x274
                    0x0274                  _I2C3BRG = 0x274
                    0x0276                  I2C3CON = 0x276
                    0x0276                  _I2C3CON = 0x276
                    0x0276                  _I2C3CONbits = 0x276
                    0x0278                  I2C3STAT = 0x278
                    0x0278                  _I2C3STAT = 0x278
                    0x0278                  _I2C3STATbits = 0x278
                    0x027a                  I2C3ADD = 0x27a
                    0x027a                  _I2C3ADD = 0x27a
                    0x027c                  I2C3MSK = 0x27c
                    0x027c                  _I2C3MSK = 0x27c
                    0x0280                  SPI3STAT = 0x280
                    0x0280                  _SPI3STAT = 0x280
                    0x0280                  _SPI3STATbits = 0x280
                    0x0282                  SPI3CON1 = 0x282
                    0x0282                  _SPI3CON1 = 0x282
                    0x0282                  _SPI3CON1bits = 0x282
                    0x0284                  SPI3CON2 = 0x284
                    0x0284                  _SPI3CON2 = 0x284
                    0x0284                  _SPI3CON2bits = 0x284
                    0x0288                  SPI3BUF = 0x288
                    0x0288                  _SPI3BUF = 0x288
                    0x02b0                  U4MODE = 0x2b0
                    0x02b0                  _U4MODE = 0x2b0
                    0x02b0                  _U4MODEbits = 0x2b0
                    0x02b2                  U4STA = 0x2b2
                    0x02b2                  _U4STA = 0x2b2
                    0x02b2                  _U4STAbits = 0x2b2
                    0x02b4                  U4TXREG = 0x2b4
                    0x02b4                  _U4TXREG = 0x2b4
                    0x02b6                  U4RXREG = 0x2b6
                    0x02b6                  _U4RXREG = 0x2b6
                    0x02b8                  U4BRG = 0x2b8
                    0x02b8                  _U4BRG = 0x2b8
                    0x02c8                  TRISB = 0x2c8
                    0x02c8                  _TRISB = 0x2c8
                    0x02c8                  _TRISBbits = 0x2c8
                    0x02ca                  PORTB = 0x2ca
                    0x02ca                  _PORTB = 0x2ca
                    0x02ca                  _PORTBbits = 0x2ca
                    0x02cc                  LATB = 0x2cc
                    0x02cc                  _LATB = 0x2cc
                    0x02cc                  _LATBbits = 0x2cc
                    0x02ce                  ODCB = 0x2ce
                    0x02ce                  _ODCB = 0x2ce
                    0x02ce                  _ODCBbits = 0x2ce
                    0x02d0                  TRISC = 0x2d0
                    0x02d0                  _TRISC = 0x2d0
                    0x02d0                  _TRISCbits = 0x2d0
                    0x02d2                  PORTC = 0x2d2
                    0x02d2                  _PORTC = 0x2d2
                    0x02d2                  _PORTCbits = 0x2d2
                    0x02d4                  LATC = 0x2d4
                    0x02d4                  _LATC = 0x2d4
                    0x02d4                  _LATCbits = 0x2d4
                    0x02d6                  ODCC = 0x2d6
                    0x02d6                  _ODCC = 0x2d6
                    0x02d6                  _ODCCbits = 0x2d6
                    0x02d8                  TRISD = 0x2d8
                    0x02d8                  _TRISD = 0x2d8
                    0x02d8                  _TRISDbits = 0x2d8
                    0x02da                  PORTD = 0x2da
                    0x02da                  _PORTD = 0x2da
                    0x02da                  _PORTDbits = 0x2da
                    0x02dc                  LATD = 0x2dc
                    0x02dc                  _LATD = 0x2dc
                    0x02dc                  _LATDbits = 0x2dc
                    0x02de                  ODCD = 0x2de
                    0x02de                  _ODCD = 0x2de
                    0x02de                  _ODCDbits = 0x2de
                    0x02e0                  TRISE = 0x2e0
                    0x02e0                  _TRISE = 0x2e0
                    0x02e0                  _TRISEbits = 0x2e0
                    0x02e2                  PORTE = 0x2e2
                    0x02e2                  _PORTE = 0x2e2
                    0x02e2                  _PORTEbits = 0x2e2
                    0x02e4                  LATE = 0x2e4
                    0x02e4                  _LATE = 0x2e4
                    0x02e4                  _LATEbits = 0x2e4
                    0x02e6                  ODCE = 0x2e6
                    0x02e6                  _ODCE = 0x2e6
                    0x02e6                  _ODCEbits = 0x2e6
                    0x02e8                  TRISF = 0x2e8
                    0x02e8                  _TRISF = 0x2e8
                    0x02e8                  _TRISFbits = 0x2e8
                    0x02ea                  PORTF = 0x2ea
                    0x02ea                  _PORTF = 0x2ea
                    0x02ea                  _PORTFbits = 0x2ea
                    0x02ec                  LATF = 0x2ec
                    0x02ec                  _LATF = 0x2ec
                    0x02ec                  _LATFbits = 0x2ec
                    0x02ee                  ODCF = 0x2ee
                    0x02ee                  _ODCF = 0x2ee
                    0x02ee                  _ODCFbits = 0x2ee
                    0x02f0                  TRISG = 0x2f0
                    0x02f0                  _TRISG = 0x2f0
                    0x02f0                  _TRISGbits = 0x2f0
                    0x02f2                  PORTG = 0x2f2
                    0x02f2                  _PORTG = 0x2f2
                    0x02f2                  _PORTGbits = 0x2f2
                    0x02f4                  LATG = 0x2f4
                    0x02f4                  _LATG = 0x2f4
                    0x02f4                  _LATGbits = 0x2f4
                    0x02f6                  ODCG = 0x2f6
                    0x02f6                  _ODCG = 0x2f6
                    0x02f6                  _ODCGbits = 0x2f6
                    0x02fc                  PADCFG1 = 0x2fc
                    0x02fc                  _PADCFG1 = 0x2fc
                    0x02fc                  _PADCFG1bits = 0x2fc
                    0x0300                  ADC1BUF0 = 0x300
                    0x0300                  _ADC1BUF0 = 0x300
                    0x0302                  ADC1BUF1 = 0x302
                    0x0302                  _ADC1BUF1 = 0x302
                    0x0304                  ADC1BUF2 = 0x304
                    0x0304                  _ADC1BUF2 = 0x304
                    0x0306                  ADC1BUF3 = 0x306
                    0x0306                  _ADC1BUF3 = 0x306
                    0x0308                  ADC1BUF4 = 0x308
                    0x0308                  _ADC1BUF4 = 0x308
                    0x030a                  ADC1BUF5 = 0x30a
                    0x030a                  _ADC1BUF5 = 0x30a
                    0x030c                  ADC1BUF6 = 0x30c
                    0x030c                  _ADC1BUF6 = 0x30c
                    0x030e                  ADC1BUF7 = 0x30e
                    0x030e                  _ADC1BUF7 = 0x30e
                    0x0310                  ADC1BUF8 = 0x310
                    0x0310                  _ADC1BUF8 = 0x310
                    0x0312                  ADC1BUF9 = 0x312
                    0x0312                  _ADC1BUF9 = 0x312
                    0x0314                  ADC1BUFA = 0x314
                    0x0314                  _ADC1BUFA = 0x314
                    0x0316                  ADC1BUFB = 0x316
                    0x0316                  _ADC1BUFB = 0x316
                    0x0318                  ADC1BUFC = 0x318
                    0x0318                  _ADC1BUFC = 0x318
                    0x031a                  ADC1BUFD = 0x31a
                    0x031a                  _ADC1BUFD = 0x31a
                    0x031c                  ADC1BUFE = 0x31c
                    0x031c                  _ADC1BUFE = 0x31c
                    0x031e                  ADC1BUFF = 0x31e
                    0x031e                  _ADC1BUFF = 0x31e
                    0x0320                  AD1CON1 = 0x320
                    0x0320                  _AD1CON1 = 0x320
                    0x0320                  _AD1CON1bits = 0x320
                    0x0322                  AD1CON2 = 0x322
                    0x0322                  _AD1CON2 = 0x322
                    0x0322                  _AD1CON2bits = 0x322
                    0x0324                  AD1CON3 = 0x324
                    0x0324                  _AD1CON3 = 0x324
                    0x0324                  _AD1CON3bits = 0x324
                    0x0328                  AD1CHS = 0x328
                    0x0328                  _AD1CHS = 0x328
                    0x0328                  _AD1CHSbits = 0x328
                    0x0328                  AD1CHS0 = 0x328
                    0x0328                  _AD1CHS0 = 0x328
                    0x0328                  _AD1CHS0bits = 0x328
                    0x032a                  AD1PCFGH = 0x32a
                    0x032a                  _AD1PCFGH = 0x32a
                    0x032a                  _AD1PCFGHbits = 0x32a
                    0x032c                  AD1PCFG = 0x32c
                    0x032c                  _AD1PCFG = 0x32c
                    0x032c                  _AD1PCFGbits = 0x32c
                    0x032c                  AD1PCFGL = 0x32c
                    0x032c                  _AD1PCFGL = 0x32c
                    0x032c                  _AD1PCFGLbits = 0x32c
                    0x0330                  AD1CSSL = 0x330
                    0x0330                  _AD1CSSL = 0x330
                    0x0330                  _AD1CSSLbits = 0x330
                    0x0332                  AD1CSSH = 0x332
                    0x0332                  _AD1CSSH = 0x332
                    0x0332                  _AD1CSSHbits = 0x332
                    0x033c                  CTMUCON = 0x33c
                    0x033c                  _CTMUCON = 0x33c
                    0x033c                  _CTMUCONbits = 0x33c
                    0x033e                  CTMUICON = 0x33e
                    0x033e                  _CTMUICON = 0x33e
                    0x033e                  _CTMUICONbits = 0x33e
                    0x0600                  PMCON = 0x600
                    0x0600                  _PMCON = 0x600
                    0x0600                  _PMCONbits = 0x600
                    0x0602                  PMMODE = 0x602
                    0x0602                  _PMMODE = 0x602
                    0x0602                  _PMMODEbits = 0x602
                    0x0604                  PMADDR = 0x604
                    0x0604                  _PMADDR = 0x604
                    0x0604                  _PMADDRbits = 0x604
                    0x0604                  PMDOUT1 = 0x604
                    0x0604                  _PMDOUT1 = 0x604
                    0x0604                  _PMDOUT1bits = 0x604
                    0x0606                  PMDOUT2 = 0x606
                    0x0606                  _PMDOUT2 = 0x606
                    0x0608                  PMDIN1 = 0x608
                    0x0608                  _PMDIN1 = 0x608
                    0x060a                  PMDIN2 = 0x60a
                    0x060a                  _PMDIN2 = 0x60a
                    0x060c                  PMAEN = 0x60c
                    0x060c                  _PMAEN = 0x60c
                    0x060c                  _PMAENbits = 0x60c
                    0x060e                  PMSTAT = 0x60e
                    0x060e                  _PMSTAT = 0x60e
                    0x060e                  _PMSTATbits = 0x60e
                    0x0620                  ALRMVAL = 0x620
                    0x0620                  _ALRMVAL = 0x620
                    0x0622                  ALCFGRPT = 0x622
                    0x0622                  _ALCFGRPT = 0x622
                    0x0622                  _ALCFGRPTbits = 0x622
                    0x0624                  RTCVAL = 0x624
                    0x0624                  _RTCVAL = 0x624
                    0x0626                  RCFGCAL = 0x626
                    0x0626                  _RCFGCAL = 0x626
                    0x0626                  _RCFGCALbits = 0x626
                    0x0630                  CMSTAT = 0x630
                    0x0630                  _CMSTAT = 0x630
                    0x0630                  _CMSTATbits = 0x630
                    0x0632                  CVRCON = 0x632
                    0x0632                  _CVRCON = 0x632
                    0x0632                  _CVRCONbits = 0x632
                    0x0634                  CM1CON = 0x634
                    0x0634                  _CM1CON = 0x634
                    0x0634                  _CM1CONbits = 0x634
                    0x0636                  CM2CON = 0x636
                    0x0636                  _CM2CON = 0x636
                    0x0636                  _CM2CONbits = 0x636
                    0x0638                  CM3CON = 0x638
                    0x0638                  _CM3CON = 0x638
                    0x0638                  _CM3CONbits = 0x638
                    0x0640                  CRCCON = 0x640
                    0x0640                  _CRCCON = 0x640
                    0x0640                  _CRCCONbits = 0x640
                    0x0642                  CRCXOR = 0x642
                    0x0642                  _CRCXOR = 0x642
                    0x0642                  _CRCXORbits = 0x642
                    0x0644                  CRCDAT = 0x644
                    0x0644                  _CRCDAT = 0x644
                    0x0646                  CRCWDAT = 0x646
                    0x0646                  _CRCWDAT = 0x646
                    0x0680                  RPINR0 = 0x680
                    0x0680                  _RPINR0 = 0x680
                    0x0680                  _RPINR0bits = 0x680
                    0x0682                  RPINR1 = 0x682
                    0x0682                  _RPINR1 = 0x682
                    0x0682                  _RPINR1bits = 0x682
                    0x0684                  RPINR2 = 0x684
                    0x0684                  _RPINR2 = 0x684
                    0x0684                  _RPINR2bits = 0x684
                    0x0686                  RPINR3 = 0x686
                    0x0686                  _RPINR3 = 0x686
                    0x0686                  _RPINR3bits = 0x686
                    0x0688                  RPINR4 = 0x688
                    0x0688                  _RPINR4 = 0x688
                    0x0688                  _RPINR4bits = 0x688
                    0x068e                  RPINR7 = 0x68e
                    0x068e                  _RPINR7 = 0x68e
                    0x068e                  _RPINR7bits = 0x68e
                    0x0690                  RPINR8 = 0x690
                    0x0690                  _RPINR8 = 0x690
                    0x0690                  _RPINR8bits = 0x690
                    0x0692                  RPINR9 = 0x692
                    0x0692                  _RPINR9 = 0x692
                    0x0692                  _RPINR9bits = 0x692
                    0x0694                  RPINR10 = 0x694
                    0x0694                  _RPINR10 = 0x694
                    0x0694                  _RPINR10bits = 0x694
                    0x0696                  RPINR11 = 0x696
                    0x0696                  _RPINR11 = 0x696
                    0x0696                  _RPINR11bits = 0x696
                    0x069e                  RPINR15 = 0x69e
                    0x069e                  _RPINR15 = 0x69e
                    0x069e                  _RPINR15bits = 0x69e
                    0x06a2                  RPINR17 = 0x6a2
                    0x06a2                  _RPINR17 = 0x6a2
                    0x06a2                  _RPINR17bits = 0x6a2
                    0x06a4                  RPINR18 = 0x6a4
                    0x06a4                  _RPINR18 = 0x6a4
                    0x06a4                  _RPINR18bits = 0x6a4
                    0x06a6                  RPINR19 = 0x6a6
                    0x06a6                  _RPINR19 = 0x6a6
                    0x06a6                  _RPINR19bits = 0x6a6
                    0x06a8                  RPINR20 = 0x6a8
                    0x06a8                  _RPINR20 = 0x6a8
                    0x06a8                  _RPINR20bits = 0x6a8
                    0x06aa                  RPINR21 = 0x6aa
                    0x06aa                  _RPINR21 = 0x6aa
                    0x06aa                  _RPINR21bits = 0x6aa
                    0x06ac                  RPINR22 = 0x6ac
                    0x06ac                  _RPINR22 = 0x6ac
                    0x06ac                  _RPINR22bits = 0x6ac
                    0x06ae                  RPINR23 = 0x6ae
                    0x06ae                  _RPINR23 = 0x6ae
                    0x06ae                  _RPINR23bits = 0x6ae
                    0x06b6                  RPINR27 = 0x6b6
                    0x06b6                  _RPINR27 = 0x6b6
                    0x06b6                  _RPINR27bits = 0x6b6
                    0x06b8                  RPINR28 = 0x6b8
                    0x06b8                  _RPINR28 = 0x6b8
                    0x06b8                  _RPINR28bits = 0x6b8
                    0x06ba                  RPINR29 = 0x6ba
                    0x06ba                  _RPINR29 = 0x6ba
                    0x06ba                  _RPINR29bits = 0x6ba
                    0x06c0                  RPOR0 = 0x6c0
                    0x06c0                  _RPOR0 = 0x6c0
                    0x06c0                  _RPOR0bits = 0x6c0
                    0x06c2                  RPOR1 = 0x6c2
                    0x06c2                  _RPOR1 = 0x6c2
                    0x06c2                  _RPOR1bits = 0x6c2
                    0x06c4                  RPOR2 = 0x6c4
                    0x06c4                  _RPOR2 = 0x6c4
                    0x06c4                  _RPOR2bits = 0x6c4
                    0x06c6                  RPOR3 = 0x6c6
                    0x06c6                  _RPOR3 = 0x6c6
                    0x06c6                  _RPOR3bits = 0x6c6
                    0x06c8                  RPOR4 = 0x6c8
                    0x06c8                  _RPOR4 = 0x6c8
                    0x06c8                  _RPOR4bits = 0x6c8
                    0x06ca                  RPOR5 = 0x6ca
                    0x06ca                  _RPOR5 = 0x6ca
                    0x06ca                  _RPOR5bits = 0x6ca
                    0x06cc                  RPOR6 = 0x6cc
                    0x06cc                  _RPOR6 = 0x6cc
                    0x06cc                  _RPOR6bits = 0x6cc
                    0x06ce                  RPOR7 = 0x6ce
                    0x06ce                  _RPOR7 = 0x6ce
                    0x06ce                  _RPOR7bits = 0x6ce
                    0x06d0                  RPOR8 = 0x6d0
                    0x06d0                  _RPOR8 = 0x6d0
                    0x06d0                  _RPOR8bits = 0x6d0
                    0x06d2                  RPOR9 = 0x6d2
                    0x06d2                  _RPOR9 = 0x6d2
                    0x06d2                  _RPOR9bits = 0x6d2
                    0x06d4                  RPOR10 = 0x6d4
                    0x06d4                  _RPOR10 = 0x6d4
                    0x06d4                  _RPOR10bits = 0x6d4
                    0x06d6                  RPOR11 = 0x6d6
                    0x06d6                  _RPOR11 = 0x6d6
                    0x06d6                  _RPOR11bits = 0x6d6
                    0x06d8                  RPOR12 = 0x6d8
                    0x06d8                  _RPOR12 = 0x6d8
                    0x06d8                  _RPOR12bits = 0x6d8
                    0x06da                  RPOR13 = 0x6da
                    0x06da                  _RPOR13 = 0x6da
                    0x06da                  _RPOR13bits = 0x6da
                    0x06dc                  RPOR14 = 0x6dc
                    0x06dc                  _RPOR14 = 0x6dc
                    0x06dc                  _RPOR14bits = 0x6dc
                    0x06de                  RPOR15 = 0x6de
                    0x06de                  _RPOR15 = 0x6de
                    0x06de                  _RPOR15bits = 0x6de
                    0x06e2                  ALTRP = 0x6e2
                    0x06e2                  _ALTRP = 0x6e2
                    0x06e2                  _ALTRPbits = 0x6e2
                    0x0740                  RCON = 0x740
                    0x0740                  _RCON = 0x740
                    0x0740                  _RCONbits = 0x740
                    0x0742                  OSCCON = 0x742
                    0x0742                  _OSCCON = 0x742
                    0x0742                  _OSCCONbits = 0x742
                    0x0742                  OSCCONL = 0x742
                    0x0742                  _OSCCONL = 0x742
                    0x0743                  OSCCONH = 0x743
                    0x0743                  _OSCCONH = 0x743
                    0x0744                  CLKDIV = 0x744
                    0x0744                  _CLKDIV = 0x744
                    0x0744                  _CLKDIVbits = 0x744
                    0x0748                  OSCTUN = 0x748
                    0x0748                  _OSCTUN = 0x748
                    0x0748                  _OSCTUNbits = 0x748
                    0x074e                  REFOCON = 0x74e
                    0x074e                  _REFOCON = 0x74e
                    0x074e                  _REFOCONbits = 0x74e
                    0x0760                  NVMCON = 0x760
                    0x0760                  _NVMCON = 0x760
                    0x0760                  _NVMCONbits = 0x760
                    0x0766                  NVMKEY = 0x766
                    0x0766                  _NVMKEY = 0x766
                    0x0770                  PMD1 = 0x770
                    0x0770                  _PMD1 = 0x770
                    0x0770                  _PMD1bits = 0x770
                    0x0772                  PMD2 = 0x772
                    0x0772                  _PMD2 = 0x772
                    0x0772                  _PMD2bits = 0x772
                    0x0774                  PMD3 = 0x774
                    0x0774                  _PMD3 = 0x774
                    0x0774                  _PMD3bits = 0x774
                    0x0776                  PMD4 = 0x776
                    0x0776                  _PMD4 = 0x776
                    0x0776                  _PMD4bits = 0x776
                    0x0778                  PMD5 = 0x778
                    0x0778                  _PMD5 = 0x778
                    0x0778                  _PMD5bits = 0x778
                    0x077a                  PMD6 = 0x77a
                    0x077a                  _PMD6 = 0x77a
                    0x077a                  _PMD6bits = 0x77a
                    0x0144                  IC1 = 0x144
                    0x0144                  _IC1 = 0x144
                    0x014c                  IC2 = 0x14c
                    0x014c                  _IC2 = 0x14c
                    0x0154                  IC3 = 0x154
                    0x0154                  _IC3 = 0x154
                    0x015c                  IC4 = 0x15c
                    0x015c                  _IC4 = 0x15c
                    0x0164                  IC5 = 0x164
                    0x0164                  _IC5 = 0x164
                    0x016c                  IC6 = 0x16c
                    0x016c                  _IC6 = 0x16c
                    0x0174                  IC7 = 0x174
                    0x0174                  _IC7 = 0x174
                    0x017c                  IC8 = 0x17c
                    0x017c                  _IC8 = 0x17c
                    0x0194                  OC1 = 0x194
                    0x0194                  _OC1 = 0x194
                    0x019e                  OC2 = 0x19e
                    0x019e                  _OC2 = 0x19e
                    0x01a8                  OC3 = 0x1a8
                    0x01a8                  _OC3 = 0x1a8
                    0x01b2                  OC4 = 0x1b2
                    0x01b2                  _OC4 = 0x1b2
                    0x01bc                  OC5 = 0x1bc
                    0x01bc                  _OC5 = 0x1bc
                    0x01c6                  OC6 = 0x1c6
                    0x01c6                  _OC6 = 0x1c6
                    0x01d0                  OC7 = 0x1d0
                    0x01d0                  _OC7 = 0x1d0
                    0x01da                  OC8 = 0x1da
                    0x01da                  _OC8 = 0x1da
                    0x0240                  SPI1 = 0x240
                    0x0240                  _SPI1 = 0x240
                    0x0260                  SPI2 = 0x260
                    0x0260                  _SPI2 = 0x260
                    0x0220                  UART1 = 0x220
                    0x0220                  _UART1 = 0x220
                    0x0230                  UART2 = 0x230
                    0x0230                  _UART2 = 0x230

EZBL_ROM_AT_0x000000
                  0x000000          0x4
 *(EZBL_ROM_AT_0x000000)
 EZBL_ROM_AT_0x000000
                  0x000000          0x4 build/default/production/ezbl_integration/ex_boot_uart.merge.o

EZBL_ROM_AT_0x000004
                  0x000004         0xfc
 *(EZBL_ROM_AT_0x000004)
 EZBL_ROM_AT_0x000004
                  0x000004         0xfc build/default/production/ezbl_integration/ex_boot_uart.merge.o

EZBL_ROM_AT_0x000100
                  0x000100          0x4
 *(EZBL_ROM_AT_0x000100)
 EZBL_ROM_AT_0x000100
                  0x000100          0x4 build/default/production/ezbl_integration/ex_boot_uart.merge.o

EZBL_ROM_AT_0x000104
                  0x000104         0xfc
 *(EZBL_ROM_AT_0x000104)
 EZBL_ROM_AT_0x000104
                  0x000104         0xfc build/default/production/ezbl_integration/ex_boot_uart.merge.o

EZBL_ROM_AT_0x000200
                  0x000200       0x1600
 *(EZBL_ROM_AT_0x000200)
 EZBL_ROM_AT_0x000200
                  0x000200       0x1600 build/default/production/ezbl_integration/ex_boot_uart.merge.o

EZBL_RAM_AT_0x000850
                    0x0850         0xb0
 *(EZBL_RAM_AT_0x000850)
 EZBL_RAM_AT_0x000850
                    0x0850         0xb0 build/default/production/ezbl_integration/ex_boot_uart.merge.o

EZBL_AppErasable
                  0x001800          0xc
 *(EZBL_AppErasable)
 EZBL_AppErasable
                  0x001800          0xc build/default/production/ezbl_integration/ex_boot_uart.merge.o

.igt              0x00180c        0x114
                  0x00180c          0x4 LONG 0x42cf8 (0x40000 | (DEFINED (__ReservedTrap0)?ABSOLUTE (__ReservedTrap0):ABSOLUTE (__DefaultInterrupt) & 0xffff))
                  0x00180e          0x4 LONG 0x0 (0x0 | ((DEFINED (__ReservedTrap0)?ABSOLUTE (__ReservedTrap0):ABSOLUTE (__DefaultInterrupt) & 0x7f0000) >> 0x10))
                  0x001810          0x4 LONG 0x41e5e (0x40000 | (DEFINED (__OscillatorFail)?ABSOLUTE (__OscillatorFail):ABSOLUTE (__DefaultInterrupt) & 0xffff))
                  0x001812          0x4 LONG 0x0 (0x0 | ((DEFINED (__OscillatorFail)?ABSOLUTE (__OscillatorFail):ABSOLUTE (__DefaultInterrupt) & 0x7f0000) >> 0x10))
                  0x001814          0x4 LONG 0x41e64 (0x40000 | (DEFINED (__AddressError)?ABSOLUTE (__AddressError):ABSOLUTE (__DefaultInterrupt) & 0xffff))
                  0x001816          0x4 LONG 0x0 (0x0 | ((DEFINED (__AddressError)?ABSOLUTE (__AddressError):ABSOLUTE (__DefaultInterrupt) & 0x7f0000) >> 0x10))
                  0x001818          0x4 LONG 0x41e6a (0x40000 | (DEFINED (__StackError)?ABSOLUTE (__StackError):ABSOLUTE (__DefaultInterrupt) & 0xffff))
                  0x00181a          0x4 LONG 0x0 (0x0 | ((DEFINED (__StackError)?ABSOLUTE (__StackError):ABSOLUTE (__DefaultInterrupt) & 0x7f0000) >> 0x10))
                  0x00181c          0x4 LONG 0x41e70 (0x40000 | (DEFINED (__MathError)?ABSOLUTE (__MathError):ABSOLUTE (__DefaultInterrupt) & 0xffff))
                  0x00181e          0x4 LONG 0x0 (0x0 | ((DEFINED (__MathError)?ABSOLUTE (__MathError):ABSOLUTE (__DefaultInterrupt) & 0x7f0000) >> 0x10))
                  0x001820          0x4 LONG 0x42cf8 (0x40000 | (DEFINED (__ReservedTrap5)?ABSOLUTE (__ReservedTrap5):ABSOLUTE (__DefaultInterrupt) & 0xffff))
                  0x001822          0x4 LONG 0x0 (0x0 | ((DEFINED (__ReservedTrap5)?ABSOLUTE (__ReservedTrap5):ABSOLUTE (__DefaultInterrupt) & 0x7f0000) >> 0x10))
                  0x001824          0x4 LONG 0x42cf8 (0x40000 | (DEFINED (__ReservedTrap6)?ABSOLUTE (__ReservedTrap6):ABSOLUTE (__DefaultInterrupt) & 0xffff))
                  0x001826          0x4 LONG 0x0 (0x0 | ((DEFINED (__ReservedTrap6)?ABSOLUTE (__ReservedTrap6):ABSOLUTE (__DefaultInterrupt) & 0x7f0000) >> 0x10))
                  0x001828          0x4 LONG 0x42cf8 (0x40000 | (DEFINED (__ReservedTrap7)?ABSOLUTE (__ReservedTrap7):ABSOLUTE (__DefaultInterrupt) & 0xffff))
                  0x00182a          0x4 LONG 0x0 (0x0 | ((DEFINED (__ReservedTrap7)?ABSOLUTE (__ReservedTrap7):ABSOLUTE (__DefaultInterrupt) & 0x7f0000) >> 0x10))
                  0x00182c          0x4 LONG 0x42cf8 (0x40000 | (DEFINED (__INT0Interrupt)?ABSOLUTE (__INT0Interrupt):ABSOLUTE (__DefaultInterrupt) & 0xffff))
                  0x00182e          0x4 LONG 0x0 (0x0 | ((DEFINED (__INT0Interrupt)?ABSOLUTE (__INT0Interrupt):ABSOLUTE (__DefaultInterrupt) & 0x7f0000) >> 0x10))
                  0x001830          0x4 LONG 0x42cf8 (0x40000 | (DEFINED (__IC1Interrupt)?ABSOLUTE (__IC1Interrupt):ABSOLUTE (__DefaultInterrupt) & 0xffff))
                  0x001832          0x4 LONG 0x0 (0x0 | ((DEFINED (__IC1Interrupt)?ABSOLUTE (__IC1Interrupt):ABSOLUTE (__DefaultInterrupt) & 0x7f0000) >> 0x10))
                  0x001834          0x4 LONG 0x42cf8 (0x40000 | (DEFINED (__OC1Interrupt)?ABSOLUTE (__OC1Interrupt):ABSOLUTE (__DefaultInterrupt) & 0xffff))
                  0x001836          0x4 LONG 0x0 (0x0 | ((DEFINED (__OC1Interrupt)?ABSOLUTE (__OC1Interrupt):ABSOLUTE (__DefaultInterrupt) & 0x7f0000) >> 0x10))
                  0x001838          0x4 LONG 0x42cf8 (0x40000 | (DEFINED (__T1Interrupt)?ABSOLUTE (__T1Interrupt):ABSOLUTE (__DefaultInterrupt) & 0xffff))
                  0x00183a          0x4 LONG 0x0 (0x0 | ((DEFINED (__T1Interrupt)?ABSOLUTE (__T1Interrupt):ABSOLUTE (__DefaultInterrupt) & 0x7f0000) >> 0x10))
                  0x00183c          0x4 LONG 0x42cf8 (0x40000 | (DEFINED (__IC2Interrupt)?ABSOLUTE (__IC2Interrupt):ABSOLUTE (__DefaultInterrupt) & 0xffff))
                  0x00183e          0x4 LONG 0x0 (0x0 | ((DEFINED (__IC2Interrupt)?ABSOLUTE (__IC2Interrupt):ABSOLUTE (__DefaultInterrupt) & 0x7f0000) >> 0x10))
                  0x001840          0x4 LONG 0x42cf8 (0x40000 | (DEFINED (__OC2Interrupt)?ABSOLUTE (__OC2Interrupt):ABSOLUTE (__DefaultInterrupt) & 0xffff))
                  0x001842          0x4 LONG 0x0 (0x0 | ((DEFINED (__OC2Interrupt)?ABSOLUTE (__OC2Interrupt):ABSOLUTE (__DefaultInterrupt) & 0x7f0000) >> 0x10))
                  0x001844          0x4 LONG 0x419b4 (0x40000 | (DEFINED (__T2Interrupt)?ABSOLUTE (__T2Interrupt):ABSOLUTE (__DefaultInterrupt) & 0xffff))
                  0x001846          0x4 LONG 0x0 (0x0 | ((DEFINED (__T2Interrupt)?ABSOLUTE (__T2Interrupt):ABSOLUTE (__DefaultInterrupt) & 0x7f0000) >> 0x10))
                  0x001848          0x4 LONG 0x42cf8 (0x40000 | (DEFINED (__T3Interrupt)?ABSOLUTE (__T3Interrupt):ABSOLUTE (__DefaultInterrupt) & 0xffff))
                  0x00184a          0x4 LONG 0x0 (0x0 | ((DEFINED (__T3Interrupt)?ABSOLUTE (__T3Interrupt):ABSOLUTE (__DefaultInterrupt) & 0x7f0000) >> 0x10))
                  0x00184c          0x4 LONG 0x42cf8 (0x40000 | (DEFINED (__SPI1ErrInterrupt)?ABSOLUTE (__SPI1ErrInterrupt):ABSOLUTE (__DefaultInterrupt) & 0xffff))
                  0x00184e          0x4 LONG 0x0 (0x0 | ((DEFINED (__SPI1ErrInterrupt)?ABSOLUTE (__SPI1ErrInterrupt):ABSOLUTE (__DefaultInterrupt) & 0x7f0000) >> 0x10))
                  0x001850          0x4 LONG 0x42cf8 (0x40000 | (DEFINED (__SPI1Interrupt)?ABSOLUTE (__SPI1Interrupt):ABSOLUTE (__DefaultInterrupt) & 0xffff))
                  0x001852          0x4 LONG 0x0 (0x0 | ((DEFINED (__SPI1Interrupt)?ABSOLUTE (__SPI1Interrupt):ABSOLUTE (__DefaultInterrupt) & 0x7f0000) >> 0x10))
                  0x001854          0x4 LONG 0x41b06 (0x40000 | (DEFINED (__U1RXInterrupt)?ABSOLUTE (__U1RXInterrupt):ABSOLUTE (__DefaultInterrupt) & 0xffff))
                  0x001856          0x4 LONG 0x0 (0x0 | ((DEFINED (__U1RXInterrupt)?ABSOLUTE (__U1RXInterrupt):ABSOLUTE (__DefaultInterrupt) & 0x7f0000) >> 0x10))
                  0x001858          0x4 LONG 0x41b9c (0x40000 | (DEFINED (__U1TXInterrupt)?ABSOLUTE (__U1TXInterrupt):ABSOLUTE (__DefaultInterrupt) & 0xffff))
                  0x00185a          0x4 LONG 0x0 (0x0 | ((DEFINED (__U1TXInterrupt)?ABSOLUTE (__U1TXInterrupt):ABSOLUTE (__DefaultInterrupt) & 0x7f0000) >> 0x10))
                  0x00185c          0x4 LONG 0x41cf4 (0x40000 | (DEFINED (__ADC1Interrupt)?ABSOLUTE (__ADC1Interrupt):ABSOLUTE (__DefaultInterrupt) & 0xffff))
                  0x00185e          0x4 LONG 0x0 (0x0 | ((DEFINED (__ADC1Interrupt)?ABSOLUTE (__ADC1Interrupt):ABSOLUTE (__DefaultInterrupt) & 0x7f0000) >> 0x10))
                  0x001860          0x4 LONG 0x42cf8 (0x40000 | (DEFINED (__SI2C1Interrupt)?ABSOLUTE (__SI2C1Interrupt):ABSOLUTE (__DefaultInterrupt) & 0xffff))
                  0x001862          0x4 LONG 0x0 (0x0 | ((DEFINED (__SI2C1Interrupt)?ABSOLUTE (__SI2C1Interrupt):ABSOLUTE (__DefaultInterrupt) & 0x7f0000) >> 0x10))
                  0x001864          0x4 LONG 0x42cf8 (0x40000 | (DEFINED (__MI2C1Interrupt)?ABSOLUTE (__MI2C1Interrupt):ABSOLUTE (__DefaultInterrupt) & 0xffff))
                  0x001866          0x4 LONG 0x0 (0x0 | ((DEFINED (__MI2C1Interrupt)?ABSOLUTE (__MI2C1Interrupt):ABSOLUTE (__DefaultInterrupt) & 0x7f0000) >> 0x10))
                  0x001868          0x4 LONG 0x42cf8 (0x40000 | (DEFINED (__CompInterrupt)?ABSOLUTE (__CompInterrupt):ABSOLUTE (__DefaultInterrupt) & 0xffff))
                  0x00186a          0x4 LONG 0x0 (0x0 | ((DEFINED (__CompInterrupt)?ABSOLUTE (__CompInterrupt):ABSOLUTE (__DefaultInterrupt) & 0x7f0000) >> 0x10))
                  0x00186c          0x4 LONG 0x41c8c (0x40000 | (DEFINED (__CNInterrupt)?ABSOLUTE (__CNInterrupt):ABSOLUTE (__DefaultInterrupt) & 0xffff))
                  0x00186e          0x4 LONG 0x0 (0x0 | ((DEFINED (__CNInterrupt)?ABSOLUTE (__CNInterrupt):ABSOLUTE (__DefaultInterrupt) & 0x7f0000) >> 0x10))
                  0x001870          0x4 LONG 0x41c3a (0x40000 | (DEFINED (__INT1Interrupt)?ABSOLUTE (__INT1Interrupt):ABSOLUTE (__DefaultInterrupt) & 0xffff))
                  0x001872          0x4 LONG 0x0 (0x0 | ((DEFINED (__INT1Interrupt)?ABSOLUTE (__INT1Interrupt):ABSOLUTE (__DefaultInterrupt) & 0x7f0000) >> 0x10))
                  0x001874          0x4 LONG 0x42cf8 (0x40000 | (DEFINED (__IC7Interrupt)?ABSOLUTE (__IC7Interrupt):ABSOLUTE (__DefaultInterrupt) & 0xffff))
                  0x001876          0x4 LONG 0x0 (0x0 | ((DEFINED (__IC7Interrupt)?ABSOLUTE (__IC7Interrupt):ABSOLUTE (__DefaultInterrupt) & 0x7f0000) >> 0x10))
                  0x001878          0x4 LONG 0x42cf8 (0x40000 | (DEFINED (__IC8Interrupt)?ABSOLUTE (__IC8Interrupt):ABSOLUTE (__DefaultInterrupt) & 0xffff))
                  0x00187a          0x4 LONG 0x0 (0x0 | ((DEFINED (__IC8Interrupt)?ABSOLUTE (__IC8Interrupt):ABSOLUTE (__DefaultInterrupt) & 0x7f0000) >> 0x10))
                  0x00187c          0x4 LONG 0x42cf8 (0x40000 | (DEFINED (__OC3Interrupt)?ABSOLUTE (__OC3Interrupt):ABSOLUTE (__DefaultInterrupt) & 0xffff))
                  0x00187e          0x4 LONG 0x0 (0x0 | ((DEFINED (__OC3Interrupt)?ABSOLUTE (__OC3Interrupt):ABSOLUTE (__DefaultInterrupt) & 0x7f0000) >> 0x10))
                  0x001880          0x4 LONG 0x42cf8 (0x40000 | (DEFINED (__OC4Interrupt)?ABSOLUTE (__OC4Interrupt):ABSOLUTE (__DefaultInterrupt) & 0xffff))
                  0x001882          0x4 LONG 0x0 (0x0 | ((DEFINED (__OC4Interrupt)?ABSOLUTE (__OC4Interrupt):ABSOLUTE (__DefaultInterrupt) & 0x7f0000) >> 0x10))
                  0x001884          0x4 LONG 0x42cf8 (0x40000 | (DEFINED (__T4Interrupt)?ABSOLUTE (__T4Interrupt):ABSOLUTE (__DefaultInterrupt) & 0xffff))
                  0x001886          0x4 LONG 0x0 (0x0 | ((DEFINED (__T4Interrupt)?ABSOLUTE (__T4Interrupt):ABSOLUTE (__DefaultInterrupt) & 0x7f0000) >> 0x10))
                  0x001888          0x4 LONG 0x42cf8 (0x40000 | (DEFINED (__T5Interrupt)?ABSOLUTE (__T5Interrupt):ABSOLUTE (__DefaultInterrupt) & 0xffff))
                  0x00188a          0x4 LONG 0x0 (0x0 | ((DEFINED (__T5Interrupt)?ABSOLUTE (__T5Interrupt):ABSOLUTE (__DefaultInterrupt) & 0x7f0000) >> 0x10))
                  0x00188c          0x4 LONG 0x41de4 (0x40000 | (DEFINED (__INT2Interrupt)?ABSOLUTE (__INT2Interrupt):ABSOLUTE (__DefaultInterrupt) & 0xffff))
                  0x00188e          0x4 LONG 0x0 (0x0 | ((DEFINED (__INT2Interrupt)?ABSOLUTE (__INT2Interrupt):ABSOLUTE (__DefaultInterrupt) & 0x7f0000) >> 0x10))
                  0x001890          0x4 LONG 0x41b38 (0x40000 | (DEFINED (__U2RXInterrupt)?ABSOLUTE (__U2RXInterrupt):ABSOLUTE (__DefaultInterrupt) & 0xffff))
                  0x001892          0x4 LONG 0x0 (0x0 | ((DEFINED (__U2RXInterrupt)?ABSOLUTE (__U2RXInterrupt):ABSOLUTE (__DefaultInterrupt) & 0x7f0000) >> 0x10))
                  0x001894          0x4 LONG 0x41be2 (0x40000 | (DEFINED (__U2TXInterrupt)?ABSOLUTE (__U2TXInterrupt):ABSOLUTE (__DefaultInterrupt) & 0xffff))
                  0x001896          0x4 LONG 0x0 (0x0 | ((DEFINED (__U2TXInterrupt)?ABSOLUTE (__U2TXInterrupt):ABSOLUTE (__DefaultInterrupt) & 0x7f0000) >> 0x10))
                  0x001898          0x4 LONG 0x42cf8 (0x40000 | (DEFINED (__SPI2ErrInterrupt)?ABSOLUTE (__SPI2ErrInterrupt):ABSOLUTE (__DefaultInterrupt) & 0xffff))
                  0x00189a          0x4 LONG 0x0 (0x0 | ((DEFINED (__SPI2ErrInterrupt)?ABSOLUTE (__SPI2ErrInterrupt):ABSOLUTE (__DefaultInterrupt) & 0x7f0000) >> 0x10))
                  0x00189c          0x4 LONG 0x42cf8 (0x40000 | (DEFINED (__SPI2Interrupt)?ABSOLUTE (__SPI2Interrupt):ABSOLUTE (__DefaultInterrupt) & 0xffff))
                  0x00189e          0x4 LONG 0x0 (0x0 | ((DEFINED (__SPI2Interrupt)?ABSOLUTE (__SPI2Interrupt):ABSOLUTE (__DefaultInterrupt) & 0x7f0000) >> 0x10))
                  0x0018a0          0x4 LONG 0x42cf8 (0x40000 | (DEFINED (__IC3Interrupt)?ABSOLUTE (__IC3Interrupt):ABSOLUTE (__DefaultInterrupt) & 0xffff))
                  0x0018a2          0x4 LONG 0x0 (0x0 | ((DEFINED (__IC3Interrupt)?ABSOLUTE (__IC3Interrupt):ABSOLUTE (__DefaultInterrupt) & 0x7f0000) >> 0x10))
                  0x0018a4          0x4 LONG 0x42cf8 (0x40000 | (DEFINED (__IC4Interrupt)?ABSOLUTE (__IC4Interrupt):ABSOLUTE (__DefaultInterrupt) & 0xffff))
                  0x0018a6          0x4 LONG 0x0 (0x0 | ((DEFINED (__IC4Interrupt)?ABSOLUTE (__IC4Interrupt):ABSOLUTE (__DefaultInterrupt) & 0x7f0000) >> 0x10))
                  0x0018a8          0x4 LONG 0x42cf8 (0x40000 | (DEFINED (__IC5Interrupt)?ABSOLUTE (__IC5Interrupt):ABSOLUTE (__DefaultInterrupt) & 0xffff))
                  0x0018aa          0x4 LONG 0x0 (0x0 | ((DEFINED (__IC5Interrupt)?ABSOLUTE (__IC5Interrupt):ABSOLUTE (__DefaultInterrupt) & 0x7f0000) >> 0x10))
                  0x0018ac          0x4 LONG 0x42cf8 (0x40000 | (DEFINED (__IC6Interrupt)?ABSOLUTE (__IC6Interrupt):ABSOLUTE (__DefaultInterrupt) & 0xffff))
                  0x0018ae          0x4 LONG 0x0 (0x0 | ((DEFINED (__IC6Interrupt)?ABSOLUTE (__IC6Interrupt):ABSOLUTE (__DefaultInterrupt) & 0x7f0000) >> 0x10))
                  0x0018b0          0x4 LONG 0x42cf8 (0x40000 | (DEFINED (__OC5Interrupt)?ABSOLUTE (__OC5Interrupt):ABSOLUTE (__DefaultInterrupt) & 0xffff))
                  0x0018b2          0x4 LONG 0x0 (0x0 | ((DEFINED (__OC5Interrupt)?ABSOLUTE (__OC5Interrupt):ABSOLUTE (__DefaultInterrupt) & 0x7f0000) >> 0x10))
                  0x0018b4          0x4 LONG 0x42cf8 (0x40000 | (DEFINED (__OC6Interrupt)?ABSOLUTE (__OC6Interrupt):ABSOLUTE (__DefaultInterrupt) & 0xffff))
                  0x0018b6          0x4 LONG 0x0 (0x0 | ((DEFINED (__OC6Interrupt)?ABSOLUTE (__OC6Interrupt):ABSOLUTE (__DefaultInterrupt) & 0x7f0000) >> 0x10))
                  0x0018b8          0x4 LONG 0x42cf8 (0x40000 | (DEFINED (__OC7Interrupt)?ABSOLUTE (__OC7Interrupt):ABSOLUTE (__DefaultInterrupt) & 0xffff))
                  0x0018ba          0x4 LONG 0x0 (0x0 | ((DEFINED (__OC7Interrupt)?ABSOLUTE (__OC7Interrupt):ABSOLUTE (__DefaultInterrupt) & 0x7f0000) >> 0x10))
                  0x0018bc          0x4 LONG 0x42cf8 (0x40000 | (DEFINED (__OC8Interrupt)?ABSOLUTE (__OC8Interrupt):ABSOLUTE (__DefaultInterrupt) & 0xffff))
                  0x0018be          0x4 LONG 0x0 (0x0 | ((DEFINED (__OC8Interrupt)?ABSOLUTE (__OC8Interrupt):ABSOLUTE (__DefaultInterrupt) & 0x7f0000) >> 0x10))
                  0x0018c0          0x4 LONG 0x42cf8 (0x40000 | (DEFINED (__PMPInterrupt)?ABSOLUTE (__PMPInterrupt):ABSOLUTE (__DefaultInterrupt) & 0xffff))
                  0x0018c2          0x4 LONG 0x0 (0x0 | ((DEFINED (__PMPInterrupt)?ABSOLUTE (__PMPInterrupt):ABSOLUTE (__DefaultInterrupt) & 0x7f0000) >> 0x10))
                  0x0018c4          0x4 LONG 0x42cf8 (0x40000 | (DEFINED (__SI2C2Interrupt)?ABSOLUTE (__SI2C2Interrupt):ABSOLUTE (__DefaultInterrupt) & 0xffff))
                  0x0018c6          0x4 LONG 0x0 (0x0 | ((DEFINED (__SI2C2Interrupt)?ABSOLUTE (__SI2C2Interrupt):ABSOLUTE (__DefaultInterrupt) & 0x7f0000) >> 0x10))
                  0x0018c8          0x4 LONG 0x42cf8 (0x40000 | (DEFINED (__MI2C2Interrupt)?ABSOLUTE (__MI2C2Interrupt):ABSOLUTE (__DefaultInterrupt) & 0xffff))
                  0x0018ca          0x4 LONG 0x0 (0x0 | ((DEFINED (__MI2C2Interrupt)?ABSOLUTE (__MI2C2Interrupt):ABSOLUTE (__DefaultInterrupt) & 0x7f0000) >> 0x10))
                  0x0018cc          0x4 LONG 0x41e2c (0x40000 | (DEFINED (__INT3Interrupt)?ABSOLUTE (__INT3Interrupt):ABSOLUTE (__DefaultInterrupt) & 0xffff))
                  0x0018ce          0x4 LONG 0x0 (0x0 | ((DEFINED (__INT3Interrupt)?ABSOLUTE (__INT3Interrupt):ABSOLUTE (__DefaultInterrupt) & 0x7f0000) >> 0x10))
                  0x0018d0          0x4 LONG 0x42cf8 (0x40000 | (DEFINED (__INT4Interrupt)?ABSOLUTE (__INT4Interrupt):ABSOLUTE (__DefaultInterrupt) & 0xffff))
                  0x0018d2          0x4 LONG 0x0 (0x0 | ((DEFINED (__INT4Interrupt)?ABSOLUTE (__INT4Interrupt):ABSOLUTE (__DefaultInterrupt) & 0x7f0000) >> 0x10))
                  0x0018d4          0x4 LONG 0x42cf8 (0x40000 | (DEFINED (__RTCCInterrupt)?ABSOLUTE (__RTCCInterrupt):ABSOLUTE (__DefaultInterrupt) & 0xffff))
                  0x0018d6          0x4 LONG 0x0 (0x0 | ((DEFINED (__RTCCInterrupt)?ABSOLUTE (__RTCCInterrupt):ABSOLUTE (__DefaultInterrupt) & 0x7f0000) >> 0x10))
                  0x0018d8          0x4 LONG 0x42cf8 (0x40000 | (DEFINED (__U1ErrInterrupt)?ABSOLUTE (__U1ErrInterrupt):ABSOLUTE (__DefaultInterrupt) & 0xffff))
                  0x0018da          0x4 LONG 0x0 (0x0 | ((DEFINED (__U1ErrInterrupt)?ABSOLUTE (__U1ErrInterrupt):ABSOLUTE (__DefaultInterrupt) & 0x7f0000) >> 0x10))
                  0x0018dc          0x4 LONG 0x42cf8 (0x40000 | (DEFINED (__U2ErrInterrupt)?ABSOLUTE (__U2ErrInterrupt):ABSOLUTE (__DefaultInterrupt) & 0xffff))
                  0x0018de          0x4 LONG 0x0 (0x0 | ((DEFINED (__U2ErrInterrupt)?ABSOLUTE (__U2ErrInterrupt):ABSOLUTE (__DefaultInterrupt) & 0x7f0000) >> 0x10))
                  0x0018e0          0x4 LONG 0x42cf8 (0x40000 | (DEFINED (__CRCInterrupt)?ABSOLUTE (__CRCInterrupt):ABSOLUTE (__DefaultInterrupt) & 0xffff))
                  0x0018e2          0x4 LONG 0x0 (0x0 | ((DEFINED (__CRCInterrupt)?ABSOLUTE (__CRCInterrupt):ABSOLUTE (__DefaultInterrupt) & 0x7f0000) >> 0x10))
                  0x0018e4          0x4 LONG 0x41e4a (0x40000 | (DEFINED (__LVDInterrupt)?ABSOLUTE (__LVDInterrupt):ABSOLUTE (__DefaultInterrupt) & 0xffff))
                  0x0018e6          0x4 LONG 0x0 (0x0 | ((DEFINED (__LVDInterrupt)?ABSOLUTE (__LVDInterrupt):ABSOLUTE (__DefaultInterrupt) & 0x7f0000) >> 0x10))
                  0x0018e8          0x4 LONG 0x42cf8 (0x40000 | (DEFINED (__CTMUInterrupt)?ABSOLUTE (__CTMUInterrupt):ABSOLUTE (__DefaultInterrupt) & 0xffff))
                  0x0018ea          0x4 LONG 0x0 (0x0 | ((DEFINED (__CTMUInterrupt)?ABSOLUTE (__CTMUInterrupt):ABSOLUTE (__DefaultInterrupt) & 0x7f0000) >> 0x10))
                  0x0018ec          0x4 LONG 0x42cf8 (0x40000 | (DEFINED (__U3ErrInterrupt)?ABSOLUTE (__U3ErrInterrupt):ABSOLUTE (__DefaultInterrupt) & 0xffff))
                  0x0018ee          0x4 LONG 0x0 (0x0 | ((DEFINED (__U3ErrInterrupt)?ABSOLUTE (__U3ErrInterrupt):ABSOLUTE (__DefaultInterrupt) & 0x7f0000) >> 0x10))
                  0x0018f0          0x4 LONG 0x41b6a (0x40000 | (DEFINED (__U3RXInterrupt)?ABSOLUTE (__U3RXInterrupt):ABSOLUTE (__DefaultInterrupt) & 0xffff))
                  0x0018f2          0x4 LONG 0x0 (0x0 | ((DEFINED (__U3RXInterrupt)?ABSOLUTE (__U3RXInterrupt):ABSOLUTE (__DefaultInterrupt) & 0x7f0000) >> 0x10))
                  0x0018f4          0x4 LONG 0x42cf8 (0x40000 | (DEFINED (__U3TXInterrupt)?ABSOLUTE (__U3TXInterrupt):ABSOLUTE (__DefaultInterrupt) & 0xffff))
                  0x0018f6          0x4 LONG 0x0 (0x0 | ((DEFINED (__U3TXInterrupt)?ABSOLUTE (__U3TXInterrupt):ABSOLUTE (__DefaultInterrupt) & 0x7f0000) >> 0x10))
                  0x0018f8          0x4 LONG 0x42cf8 (0x40000 | (DEFINED (__SI2C3Interrupt)?ABSOLUTE (__SI2C3Interrupt):ABSOLUTE (__DefaultInterrupt) & 0xffff))
                  0x0018fa          0x4 LONG 0x0 (0x0 | ((DEFINED (__SI2C3Interrupt)?ABSOLUTE (__SI2C3Interrupt):ABSOLUTE (__DefaultInterrupt) & 0x7f0000) >> 0x10))
                  0x0018fc          0x4 LONG 0x42cf8 (0x40000 | (DEFINED (__MI2C3Interrupt)?ABSOLUTE (__MI2C3Interrupt):ABSOLUTE (__DefaultInterrupt) & 0xffff))
                  0x0018fe          0x4 LONG 0x0 (0x0 | ((DEFINED (__MI2C3Interrupt)?ABSOLUTE (__MI2C3Interrupt):ABSOLUTE (__DefaultInterrupt) & 0x7f0000) >> 0x10))
                  0x001900          0x4 LONG 0x42cf8 (0x40000 | (DEFINED (__U4ErrInterrupt)?ABSOLUTE (__U4ErrInterrupt):ABSOLUTE (__DefaultInterrupt) & 0xffff))
                  0x001902          0x4 LONG 0x0 (0x0 | ((DEFINED (__U4ErrInterrupt)?ABSOLUTE (__U4ErrInterrupt):ABSOLUTE (__DefaultInterrupt) & 0x7f0000) >> 0x10))
                  0x001904          0x4 LONG 0x41c28 (0x40000 | (DEFINED (__U4RXInterrupt)?ABSOLUTE (__U4RXInterrupt):ABSOLUTE (__DefaultInterrupt) & 0xffff))
                  0x001906          0x4 LONG 0x0 (0x0 | ((DEFINED (__U4RXInterrupt)?ABSOLUTE (__U4RXInterrupt):ABSOLUTE (__DefaultInterrupt) & 0x7f0000) >> 0x10))
                  0x001908          0x4 LONG 0x42cf8 (0x40000 | (DEFINED (__U4TXInterrupt)?ABSOLUTE (__U4TXInterrupt):ABSOLUTE (__DefaultInterrupt) & 0xffff))
                  0x00190a          0x4 LONG 0x0 (0x0 | ((DEFINED (__U4TXInterrupt)?ABSOLUTE (__U4TXInterrupt):ABSOLUTE (__DefaultInterrupt) & 0x7f0000) >> 0x10))
                  0x00190c          0x4 LONG 0x42cf8 (0x40000 | (DEFINED (__SPI3ErrInterrupt)?ABSOLUTE (__SPI3ErrInterrupt):ABSOLUTE (__DefaultInterrupt) & 0xffff))
                  0x00190e          0x4 LONG 0x0 (0x0 | ((DEFINED (__SPI3ErrInterrupt)?ABSOLUTE (__SPI3ErrInterrupt):ABSOLUTE (__DefaultInterrupt) & 0x7f0000) >> 0x10))
                  0x001910          0x4 LONG 0x42cf8 (0x40000 | (DEFINED (__SPI3Interrupt)?ABSOLUTE (__SPI3Interrupt):ABSOLUTE (__DefaultInterrupt) & 0xffff))
                  0x001912          0x4 LONG 0x0 (0x0 | ((DEFINED (__SPI3Interrupt)?ABSOLUTE (__SPI3Interrupt):ABSOLUTE (__DefaultInterrupt) & 0x7f0000) >> 0x10))
                  0x001914          0x4 LONG 0x42cf8 (0x40000 | (DEFINED (__OC9Interrupt)?ABSOLUTE (__OC9Interrupt):ABSOLUTE (__DefaultInterrupt) & 0xffff))
                  0x001916          0x4 LONG 0x0 (0x0 | ((DEFINED (__OC9Interrupt)?ABSOLUTE (__OC9Interrupt):ABSOLUTE (__DefaultInterrupt) & 0x7f0000) >> 0x10))
                  0x001918          0x4 LONG 0x42cf8 (0x40000 | (DEFINED (__IC9Interrupt)?ABSOLUTE (__IC9Interrupt):ABSOLUTE (__DefaultInterrupt) & 0xffff))
                  0x00191a          0x4 LONG 0x0 (0x0 | ((DEFINED (__IC9Interrupt)?ABSOLUTE (__IC9Interrupt):ABSOLUTE (__DefaultInterrupt) & 0x7f0000) >> 0x10))
                  0x00191c          0x4 LONG 0x42cf8 (0x40000 | (ABSOLUTE (__DefaultInterrupt) & 0xffff))
                  0x00191e          0x4 LONG 0x0 (0x0 | ((ABSOLUTE (__DefaultInterrupt) & 0x7f0000) >> 0x10))

.text             0x001920       0x44ce
 *(.init)
 .init            0x001920         0x36 c:/program files (x86)/microchip/xc16/v1.20/bin/bin/../../lib\libpic30-elf.a(crt0_standard.o)
                  0x001920                  __resetPRI
                  0x001920                  __reset
                  0x001946                  __psv_init
 .init            0x001956         0x5e c:/program files (x86)/microchip/xc16/v1.20/bin/bin/../../lib\libpic30-elf.a(data_init_standard.o)
                  0x001956                  __data_init_standard
                  0x001956                  __data_init
 *(.user_init)
 *(.handle)
 *(.isr*)
 .isr.text        0x0019b4       0x1344 build/default/production/_ext/1360937237/Main.o
                  0x0019b4                  __T2Interrupt
                  0x001a40                  _U_Rx
                  0x001b06                  __U1RXInterrupt
                  0x001b38                  __U2RXInterrupt
                  0x001b6a                  __U3RXInterrupt
                  0x001b9c                  __U1TXInterrupt
                  0x001be2                  __U2TXInterrupt
                  0x001c28                  __U4RXInterrupt
                  0x001c3a                  __INT1Interrupt
                  0x001c8c                  __CNInterrupt
                  0x001cf4                  __ADC1Interrupt
                  0x001de4                  __INT2Interrupt
                  0x001e2c                  __INT3Interrupt
                  0x001e4a                  __LVDInterrupt
                  0x001e5e                  __OscillatorFail
                  0x001e64                  __AddressError
                  0x001e6a                  __StackError
                  0x001e70                  __MathError
                  0x001e76                  _EndCom
                  0x001ea6                  _SwitchToComport
                  0x001ed8                  _ClrBelt
                  0x001f12                  _DoMeasurement
                  0x001f88                  _StartSensors
                  0x001fe8                  _PrePortReading
                  0x001ff2                  _PostPortReading
                  0x002004                  _SensorIntReports
                  0x00200e                  _IsRxOver
                  0x0020dc                  _TriggerPort
                  0x0020e4                  _ConnectCell
                  0x00211e                  _Inst_Analysis
                  0x002250                  _ShowDownResult
                  0x0022ba                  _FormatUltrashort
                  0x0022c8                  _FormatSM
                  0x0022d6                  _FormatPSTN
                  0x0022e4                  _StripOffComHeader
                  0x002332                  _Connect
                  0x0023ee                  _Com1Proc
                  0x00246c                  _Com2Proc
                  0x002474                  _RingReport
                  0x002480                  _WaitSensorEcho
                  0x0024a6                  _DirectAccess
                  0x00253e                  _RxPinLocked
                  0x00257a                  _ChargeManage
                  0x002580                  _CheckCfgValidation
                  0x002586                  _PowerBeforeSleep
                  0x0025f8                  _StartScreen
                  0x002646                  _SystemGuard
                  0x002678                  _GetCTable
                  0x002758                  _LoadCfgIfOk
                  0x0027e6                  _CheckCfg
                  0x00287e                  _InitPower
                  0x002890                  _TaskLine
                  0x0028d2                  _GoSleep
                  0x00298e                  _KeyDisplay
                  0x0029da                  _main
 .isr             0x002cf8          0x4 default_isr
                  0x002cf8                  __DefaultInterrupt
 *(.libc)
 .libc            0x002cfc         0x14 c:/program files (x86)/microchip/xc16/v1.20/bin/bin/../../lib\libc-elf.a(isalpha.eso)
                  0x002cfc                  _isalpha
 .libc            0x002d10         0x10 c:/program files (x86)/microchip/xc16/v1.20/bin/bin/../../lib\libc-elf.a(isspace.eso)
                  0x002d10                  _isspace
 .libc            0x002d20          0xc c:/program files (x86)/microchip/xc16/v1.20/bin/bin/../../lib\libc-elf.a(isupper.eso)
                  0x002d20                  _isupper
 .libc            0x002d2c         0x1c c:/program files (x86)/microchip/xc16/v1.20/bin/bin/../../lib\libc-elf.a(isxdigit.eso)
                  0x002d2c                  _isxdigit
 .libc            0x002d48          0xe c:/program files (x86)/microchip/xc16/v1.20/bin/bin/../../lib\libc-elf.a(tolower.eso)
                  0x002d48                  _tolower
 *(.libm)
 *(.libdsp)
 *(.lib*)
 .libm.subsf3     0x002d56         0xbc c:/program files (x86)/microchip/xc16/v1.20/bin/bin/../../lib\libm-elf.a(addsf3.eo)
                  0x002d56                  ___subsf3
                  0x002d58                  ___addsf3
 .libm.eqsf2      0x002e12          0x4 c:/program files (x86)/microchip/xc16/v1.20/bin/bin/../../lib\libm-elf.a(feqltle.eo)
                  0x002e12                  ___eqsf2
                  0x002e12                  ___ltsf2
                  0x002e12                  ___lesf2
 .libm.gtsf2      0x002e16          0x4 c:/program files (x86)/microchip/xc16/v1.20/bin/bin/../../lib\libm-elf.a(fgtge.eo)
                  0x002e16                  ___gesf2
                  0x002e16                  ___gtsf2
 .libm.fixsfsi    0x002e1a         0x42 c:/program files (x86)/microchip/xc16/v1.20/bin/bin/../../lib\libm-elf.a(fixsfsi.eo)
                  0x002e1a                  _(float, int, long long, short, float, short, int)
 .libm.fixunssfsi
                  0x002e5c         0x36 c:/program files (x86)/microchip/xc16/v1.20/bin/bin/../../lib\libm-elf.a(fixunssfsi.eo)
                  0x002e5c                  ___fixunssfsi
 .libm.floatunsisf
                  0x002e92          0x4 c:/program files (x86)/microchip/xc16/v1.20/bin/bin/../../lib\libm-elf.a(floatunsisf.eo)
                  0x002e92                  ___floatunsisf
 .libm.fpack      0x002e96         0x4c c:/program files (x86)/microchip/xc16/v1.20/bin/bin/../../lib\libm-elf.a(fpack.eo)
                  0x002e96                  __fpack
 .libm.funpack    0x002ee2         0x2a c:/program files (x86)/microchip/xc16/v1.20/bin/bin/../../lib\libm-elf.a(funpack.eo)
                  0x002ee2                  __funpack
 .libm.funpack2
                  0x002f0c         0x10 c:/program files (x86)/microchip/xc16/v1.20/bin/bin/../../lib\libm-elf.a(funpack2.eo)
                  0x002f0c                  __funpack2
 .libm.fPropagateNaN
                  0x002f1c         0x12 c:/program files (x86)/microchip/xc16/v1.20/bin/bin/../../lib\libm-elf.a(futil.eo)
                  0x002f1c                  __fPropagateNaN
 .libm.fbobExit
                  0x002f2e          0x8 c:/program files (x86)/microchip/xc16/v1.20/bin/bin/../../lib\libm-elf.a(futil.eo)
                  0x002f2e                  __fbopExit
 .libm.fbopReturnNaN
                  0x002f36          0x6 c:/program files (x86)/microchip/xc16/v1.20/bin/bin/../../lib\libm-elf.a(futil.eo)
                  0x002f36                  __fbopReturnNaN
 .libm.modsi3     0x002f3c         0x1e c:/program files (x86)/microchip/xc16/v1.20/bin/bin/../../lib\libm-elf.a(modsi3.eo)
                  0x002f3c                  ___modsi3
 .libm.mulsf3     0x002f5a         0x68 c:/program files (x86)/microchip/xc16/v1.20/bin/bin/../../lib\libm-elf.a(mulsf3.eo)
                  0x002f5a                  ___mulsf3
 .libm.umodsi3    0x002fc2          0x6 c:/program files (x86)/microchip/xc16/v1.20/bin/bin/../../lib\libm-elf.a(umodsi3.eo)
                  0x002fc2                  ___umodsi3
 .libm.fcompare
                  0x002fc8         0x36 c:/program files (x86)/microchip/xc16/v1.20/bin/bin/../../lib\libm-elf.a(fcompare.eo)
                  0x002fc8                  __fcompare
 .libm.floatundisf
                  0x002ffe         0x5e c:/program files (x86)/microchip/xc16/v1.20/bin/bin/../../lib\libm-elf.a(floatundisf.eo)
                  0x002ffe                  ___floatundisf
 .libc.strtod.strtod
                  0x00305c        0x1ee c:/program files (x86)/microchip/xc16/v1.20/bin/bin/../../lib\libc-elf.a(atof.eo)
                  0x00305c                  _strtod
 .libc.atof.atof
                  0x00324a          0x4 c:/program files (x86)/microchip/xc16/v1.20/bin/bin/../../lib\libc-elf.a(atof.eo)
                  0x00324a                  _atof
 .libc.atoi.atoi
                  0x00324e         0x3e c:/program files (x86)/microchip/xc16/v1.20/bin/bin/../../lib\libc-elf.a(atoi.eo)
                  0x00324e                  _atoi
 .libc.atol.atol
                  0x00328c         0x56 c:/program files (x86)/microchip/xc16/v1.20/bin/bin/../../lib\libc-elf.a(atol.eo)
                  0x00328c                  _atol
 .libc.memset.memset
                  0x0032e2          0xe c:/program files (x86)/microchip/xc16/v1.20/bin/bin/../../lib\libc-elf.a(memset.eo)
                  0x0032e2                  _memset
 .libc.strcat.strcat
                  0x0032f0         0x16 c:/program files (x86)/microchip/xc16/v1.20/bin/bin/../../lib\libc-elf.a(strcat.eo)
                  0x0032f0                  _strcat
 .libc.strchr.strchr
                  0x003306         0x14 c:/program files (x86)/microchip/xc16/v1.20/bin/bin/../../lib\libc-elf.a(strchr.eo)
                  0x003306                  _strchr
 .libc.strcpy.strcpy
                  0x00331a          0xc c:/program files (x86)/microchip/xc16/v1.20/bin/bin/../../lib\libc-elf.a(strcpy.eo)
                  0x00331a                  _strcpy
 .libc.strlen.strlen
                  0x003326          0xe c:/program files (x86)/microchip/xc16/v1.20/bin/bin/../../lib\libc-elf.a(strlen.eo)
                  0x003326                  _strlen
 .libc.wspace.wspace
                  0x003334         0x1e c:/program files (x86)/microchip/xc16/v1.20/bin/bin/../../lib\libc-elf.a(doscan_cdnopuxX.XXeo)
 .libc.range.range
                  0x003352         0x46 c:/program files (x86)/microchip/xc16/v1.20/bin/bin/../../lib\libc-elf.a(doscan_cdnopuxX.XXeo)
 .libc._vfscanf_cdnopuxX._vfscanf_cdnopuxX
                  0x003398        0x2a8 c:/program files (x86)/microchip/xc16/v1.20/bin/bin/../../lib\libc-elf.a(doscan_cdnopuxX.XXeo)
                  0x003398                  __vfscanf_cdnopuxX
 .libc.wspace.wspace
                  0x003640         0x1e c:/program files (x86)/microchip/xc16/v1.20/bin/bin/../../lib\libc-elf.a(doscan_cdfFnopuxX.XXeo)
 .libc.range.range
                  0x00365e         0x46 c:/program files (x86)/microchip/xc16/v1.20/bin/bin/../../lib\libc-elf.a(doscan_cdfFnopuxX.XXeo)
 .libc._vfscanf_cdfFnopuxX._vfscanf_cdfFnopuxX
                  0x0036a4        0x3b6 c:/program files (x86)/microchip/xc16/v1.20/bin/bin/../../lib\libc-elf.a(doscan_cdfFnopuxX.XXeo)
                  0x0036a4                  __vfscanf_cdfFnopuxX
 .libc._dstrtod._dstrtod
                  0x003a5a        0x240 c:/program files (x86)/microchip/xc16/v1.20/bin/bin/../../lib\libc-elf.a(atof_cdfFnopuxX.dXXeo)
                  0x003a5a                  __dstrtod
 .libc._datof._datof
                  0x003c9a          0x4 c:/program files (x86)/microchip/xc16/v1.20/bin/bin/../../lib\libc-elf.a(atof_cdfFnopuxX.dXXeo)
                  0x003c9a                  __datof
 .libc._sprintf_cdfFnopsuxX._sprintf_cdfFnopsuxX
                  0x003c9e         0x2c c:/program files (x86)/microchip/xc16/v1.20/bin/bin/../../lib\libc-elf.a(sprintf_cdfFnopsuxX.XXeo)
                  0x003c9e                  __sprintf_fF
                  0x003c9e                  __sprintf_cdfFnopuxX
                  0x003c9e                  __sprintf_cdfFnopsuxX
                  0x003c9e                  __sprintf_cdnopuxX
                  0x003c9e                  __sprintf_cdnopsuxX
 .libc._sscanf_cdfFnopsuxX._sscanf_cdfFnopsuxX
                  0x003cca         0x1c c:/program files (x86)/microchip/xc16/v1.20/bin/bin/../../lib\libc-elf.a(sscanf_cdfFnopsuxX.XXeo)
                  0x003cca                  __sscanf_cdnopsuxX
                  0x003cca                  __sscanf_cdfFnopsuxX
                  0x003cca                  __sscanf_cdnopuxX
                  0x003cca                  __sscanf_cdfFnopuxX
 .libc.wspace.wspace
                  0x003ce6         0x1e c:/program files (x86)/microchip/xc16/v1.20/bin/bin/../../lib\libc-elf.a(doscan_cdfFnopsuxX.XXeo)
 .libc.range.range
                  0x003d04         0x46 c:/program files (x86)/microchip/xc16/v1.20/bin/bin/../../lib\libc-elf.a(doscan_cdfFnopsuxX.XXeo)
 .libc._vfscanf_cdfFnopsuxX._vfscanf_cdfFnopsuxX
                  0x003d4a        0x3b6 c:/program files (x86)/microchip/xc16/v1.20/bin/bin/../../lib\libc-elf.a(doscan_cdfFnopsuxX.XXeo)
                  0x003d4a                  __vfscanf_cdfFnopsuxX
 .libc.fround.fround
                  0x004100         0x94 c:/program files (x86)/microchip/xc16/v1.20/bin/bin/../../lib\libc-elf.a(doprnt_cdfFnopsuxX.XXeo)
 .libc.scale.scale
                  0x004194         0xc4 c:/program files (x86)/microchip/xc16/v1.20/bin/bin/../../lib\libc-elf.a(doprnt_cdfFnopsuxX.XXeo)
 .libc._vfprintf_cdfFnopsuxX._vfprintf_cdfFnopsuxX
                  0x004258        0xbf6 c:/program files (x86)/microchip/xc16/v1.20/bin/bin/../../lib\libc-elf.a(doprnt_cdfFnopsuxX.XXeo)
                  0x004258                  __vfprintf_cdfFnopsuxX
                  0x004258                  __vfprintf_cdnopuxX
                  0x004258                  __vfprintf_cdnopsuxX
                  0x004258                  __vfprintf_cdfFnopuxX
                  0x004258                  __vfprintf_fF
 .libc.wspace.wspace
                  0x004e4e         0x1e c:/program files (x86)/microchip/xc16/v1.20/bin/bin/../../lib\libc-elf.a(doscan_cdnopsuxX.XXeo)
 .libc.range.range
                  0x004e6c         0x46 c:/program files (x86)/microchip/xc16/v1.20/bin/bin/../../lib\libc-elf.a(doscan_cdnopsuxX.XXeo)
 .libc._vfscanf_cdnopsuxX._vfscanf_cdnopsuxX
                  0x004eb2        0x2a8 c:/program files (x86)/microchip/xc16/v1.20/bin/bin/../../lib\libc-elf.a(doscan_cdnopsuxX.XXeo)
                  0x004eb2                  __vfscanf_cdnopsuxX
 .libc.fgetc.fgetc
                  0x00515a         0x66 c:/program files (x86)/microchip/xc16/v1.20/bin/bin/../../lib\libc-elf.a(fgetc.eo)
                  0x00515a                  _fgetc
 .libc._filbuf._filbuf
                  0x0051c0         0x9c c:/program files (x86)/microchip/xc16/v1.20/bin/bin/../../lib\libc-elf.a(filbuf.eo)
                  0x0051c0                  __filbuf
 .libc.fputc.fputc
                  0x00525c         0x88 c:/program files (x86)/microchip/xc16/v1.20/bin/bin/../../lib\libc-elf.a(fputc.eo)
                  0x00525c                  _fputc
 .libc.ungetc.ungetc
                  0x0052e4         0x38 c:/program files (x86)/microchip/xc16/v1.20/bin/bin/../../lib\libc-elf.a(ungetc.eo)
                  0x0052e4                  _ungetc
 .libc.fflush.fflush
                  0x00531c         0x54 c:/program files (x86)/microchip/xc16/v1.20/bin/bin/../../lib\libc-elf.a(fflush.eo)
                  0x00531c                  _fflush
 .libc._flsbuf._flsbuf
                  0x005370         0x84 c:/program files (x86)/microchip/xc16/v1.20/bin/bin/../../lib\libc-elf.a(flsbuf.eo)
                  0x005370                  __flsbuf
 .libc.doread.doread
                  0x0053f4          0x4 c:/program files (x86)/microchip/xc16/v1.20/bin/bin/../../lib\libpic30-elf.a(read.eo)
 .libc.read       0x0053f8         0x68 c:/program files (x86)/microchip/xc16/v1.20/bin/bin/../../lib\libpic30-elf.a(read.eo)
                  0x0053f8                  _read
 .libc.dowrite.dowrite
                  0x005460          0x4 c:/program files (x86)/microchip/xc16/v1.20/bin/bin/../../lib\libpic30-elf.a(write.eo)
 .libc.write      0x005464         0x60 c:/program files (x86)/microchip/xc16/v1.20/bin/bin/../../lib\libpic30-elf.a(write.eo)
                  0x005464                  _write
 .libm.adddf3     0x0054c4         0xfa c:/program files (x86)/microchip/xc16/v1.20/bin/bin/../../lib\libm-elf.a(adddf3.eo)
                  0x0054c4                  ___adddf3
 .libm.eqdf2      0x0055be          0xa c:/program files (x86)/microchip/xc16/v1.20/bin/bin/../../lib\libm-elf.a(deqltle.eo)
                  0x0055be                  ___eqdf2
                  0x0055be                  ___ltdf2
                  0x0055be                  ___ledf2
 .libm.gtdf2      0x0055c8          0xa c:/program files (x86)/microchip/xc16/v1.20/bin/bin/../../lib\libm-elf.a(dgtge.eo)
                  0x0055c8                  ___gtdf2
                  0x0055c8                  ___gedf2
 .libm.divdf3     0x0055d2         0xb4 c:/program files (x86)/microchip/xc16/v1.20/bin/bin/../../lib\libm-elf.a(divdf3.eo)
                  0x0055d2                  ___divdf3
 .libm.divfs3     0x005686         0x84 c:/program files (x86)/microchip/xc16/v1.20/bin/bin/../../lib\libm-elf.a(divsf3.eo)
                  0x005686                  ___divsf3
 .libm.nedf2      0x00570a          0xa c:/program files (x86)/microchip/xc16/v1.20/bin/bin/../../lib\libm-elf.a(dne.eo)
                  0x00570a                  ___nedf2
 .libm.dpack      0x005714         0x58 c:/program files (x86)/microchip/xc16/v1.20/bin/bin/../../lib\libm-elf.a(dpack.eo)
                  0x005714                  __dpack
 .libm.dunpack2
                  0x00576c         0x32 c:/program files (x86)/microchip/xc16/v1.20/bin/bin/../../lib\libm-elf.a(dunpack2.eo)
                  0x00576c                  __dunpack2
                  0x00578e                  __dreturnNaN
                  0x005794                  __dunpack2exit
 .libm.extendsfdf2
                  0x00579e         0x3e c:/program files (x86)/microchip/xc16/v1.20/bin/bin/../../lib\libm-elf.a(extendsfdf.eo)
                  0x00579e                  ___extendsfdf2
 .libm.fixunsdfdi
                  0x0057dc         0x62 c:/program files (x86)/microchip/xc16/v1.20/bin/bin/../../lib\libm-elf.a(fixunsdfdi.eo)
                  0x0057dc                  ___fixunsdfdi
 .libm.floatsidf
                  0x00583e          0x6 c:/program files (x86)/microchip/xc16/v1.20/bin/bin/../../lib\libm-elf.a(floatsidf.eo)
                  0x00583e                  ___floatsidf
 .libm.floatsisf
                  0x005844          0x6 c:/program files (x86)/microchip/xc16/v1.20/bin/bin/../../lib\libm-elf.a(floatsisf.eo)
                  0x005844                  ___floatsisf
 .libm.floatundidf
                  0x00584a         0x56 c:/program files (x86)/microchip/xc16/v1.20/bin/bin/../../lib\libm-elf.a(floatundidf.eo)
                  0x00584a                  ___floatundidf
 .libm.frexpf     0x0058a0          0x6 c:/program files (x86)/microchip/xc16/v1.20/bin/bin/../../lib\libm-elf.a(frexpf.eo)
                  0x0058a0                  _frexpf
 .libm.muldf3     0x0058a6         0xea c:/program files (x86)/microchip/xc16/v1.20/bin/bin/../../lib\libm-elf.a(muldf3.eo)
                  0x0058a6                  ___muldf3
 .libm.subdf3     0x005990          0x4 c:/program files (x86)/microchip/xc16/v1.20/bin/bin/../../lib\libm-elf.a(subdf3.eo)
                  0x005990                  ___subdf3
 .libm.truncdfsf2
                  0x005994         0x56 c:/program files (x86)/microchip/xc16/v1.20/bin/bin/../../lib\libm-elf.a(truncdfsf.eo)
                  0x005994                  ___truncdfsf2
 .libm.mulsi3     0x0059ea          0xc c:/program files (x86)/microchip/xc16/v1.20/bin/bin/../../lib\libm-elf.a(mulsi3.eo)
                  0x0059ea                  ___mulp32peds3
                  0x0059ea                  ___mulsi3
                  0x0059ea                  ___mulp32eds3
 .libm.__PplusBdi.__PplusBdi
                  0x0059f6         0x28 c:/program files (x86)/microchip/xc16/v1.20/bin/bin/../../lib\libm-elf.a(divmoddi3.eo)
 .libm.__PminusBdi.__PminusBdi
                  0x005a1e         0x4a c:/program files (x86)/microchip/xc16/v1.20/bin/bin/../../lib\libm-elf.a(divmoddi3.eo)
 .libm.__udivmoddi3.__udivmoddi3
                  0x005a68         0xe4 c:/program files (x86)/microchip/xc16/v1.20/bin/bin/../../lib\libm-elf.a(divmoddi3.eo)
                  0x005a68                  ___udivmoddi3
 .libm.__udivdi3.__udivdi3
                  0x005b4c          0xe c:/program files (x86)/microchip/xc16/v1.20/bin/bin/../../lib\libm-elf.a(divmoddi3.eo)
                  0x005b4c                  ___udivdi3
 .libm.__umoddi3.__umoddi3
                  0x005b5a          0x8 c:/program files (x86)/microchip/xc16/v1.20/bin/bin/../../lib\libm-elf.a(divmoddi3.eo)
                  0x005b5a                  ___umoddi3
 .libm.__divdi3.__divdi3
                  0x005b62         0x60 c:/program files (x86)/microchip/xc16/v1.20/bin/bin/../../lib\libm-elf.a(divmoddi3.eo)
                  0x005b62                  ___divdi3
 .libm.__moddi3.__moddi3
                  0x005bc2         0x5c c:/program files (x86)/microchip/xc16/v1.20/bin/bin/../../lib\libm-elf.a(divmoddi3.eo)
                  0x005bc2                  ___moddi3
 .libm.__muldi3.__muldi3
                  0x005c1e         0x52 c:/program files (x86)/microchip/xc16/v1.20/bin/bin/../../lib\libm-elf.a(muldi3.eo)
                  0x005c1e                  ___muldi3
 .libm.frexpf     0x005c70         0x1a c:/program files (x86)/microchip/xc16/v1.20/bin/bin/../../lib\libm-elf.a(_frexpf.eo)
                  0x005c70                  __frexpf
 .libm.dcompare
                  0x005c8a         0x52 c:/program files (x86)/microchip/xc16/v1.20/bin/bin/../../lib\libm-elf.a(dcompare.eo)
                  0x005c8a                  __dcompare
 .libm.dPropagateNaN
                  0x005cdc         0x1c c:/program files (x86)/microchip/xc16/v1.20/bin/bin/../../lib\libm-elf.a(dpropagateNaN.eo)
                  0x005cdc                  __dPropagateNaN
 .libm.dtype      0x005cf8         0x24 c:/program files (x86)/microchip/xc16/v1.20/bin/bin/../../lib\libm-elf.a(dtype.eo)
                  0x005cf8                  __dtype
 .libm.dunpack    0x005d1c         0x4e c:/program files (x86)/microchip/xc16/v1.20/bin/bin/../../lib\libm-elf.a(dunpack.eo)
                  0x005d1c                  __dunpack
 .libm.floatdidf
                  0x005d6a         0x20 c:/program files (x86)/microchip/xc16/v1.20/bin/bin/../../lib\libm-elf.a(floatdidf.eo)
                  0x005d6a                  ___floatdidf
 .libm.floatdisf
                  0x005d8a         0x20 c:/program files (x86)/microchip/xc16/v1.20/bin/bin/../../lib\libm-elf.a(floatdisf.eo)
                  0x005d8a                  ___floatdisf
 .libm.umuldi3    0x005daa         0x44 c:/program files (x86)/microchip/xc16/v1.20/bin/bin/../../lib\libm-elf.a(umuldi3.eo)
                  0x005daa                  ___umuldi3

usercode
 *(usercode)

__CONFIG3
 *(__CONFIG3.sec*)

__CONFIG2         0x02abfc          0x2
 *(__CONFIG2.sec*)
 __CONFIG2.sec    0x02abfc          0x2 build/default/production/_ext/1360937237/Main.o

__CONFIG1         0x02abfe          0x2
 *(__CONFIG1.sec*)
 __CONFIG1.sec    0x02abfe          0x2 build/default/production/_ext/1360937237/Main.o

.comment
 *(.comment)

.debug_info       0x000000      0x2019c
 *(.debug_info)
 .debug_info      0x000000        0xdc8 build/default/production/_ext/1360937237/Adc.o
 .debug_info      0x000dc8        0xbc0 build/default/production/_ext/1360937237/Calendar.o
 .debug_info      0x001988       0x2cc2 build/default/production/_ext/1360937237/Comm232.o
 .debug_info      0x00464a        0x142 build/default/production/_ext/1360937237/DEBUG.o
 .debug_info      0x00478c        0x877 build/default/production/_ext/1360937237/DS18B20.o
 .debug_info      0x005003       0x1402 build/default/production/_ext/1360937237/In_Sensor.o
 .debug_info      0x006405        0x827 build/default/production/_ext/1360937237/In_Setup.o
 .debug_info      0x006c2c        0x477 build/default/production/_ext/1360937237/In_Sys.o
 .debug_info      0x0070a3       0x46d1 build/default/production/_ext/1360937237/Init.o
 .debug_info      0x00b774       0x123e build/default/production/_ext/1360937237/Lcd.o
 .debug_info      0x00c9b2       0x3d0b build/default/production/_ext/1360937237/Main.o
 .debug_info      0x0106bd        0xa67 build/default/production/_ext/1360937237/MakeMsg.o
 .debug_info      0x011124        0xc8c build/default/production/_ext/1360937237/Power.o
 .debug_info      0x011db0        0x752 build/default/production/_ext/1360937237/R4571.o
 .debug_info      0x012502        0x7fc build/default/production/_ext/1360937237/ReadPort.o
 .debug_info      0x012cfe        0xd53 build/default/production/_ext/1360937237/Record.o
 .debug_info      0x013a51       0x1336 build/default/production/_ext/1360937237/Regist.o
 .debug_info      0x014d87       0x147d build/default/production/_ext/1360937237/Reports.o
 .debug_info      0x016204        0x6a4 build/default/production/_ext/1360937237/SerialSensor.o
 .debug_info      0x0168a8        0xcb7 build/default/production/_ext/1360937237/Spi.o
 .debug_info      0x01755f       0x1946 build/default/production/_ext/1360937237/Sub.o
 .debug_info      0x018ea5        0x619 build/default/production/_ext/1360937237/TF_Ch376Func.o
 .debug_info      0x0194be        0xe40 build/default/production/_ext/1360937237/TF_FileSys.o
 .debug_info      0x01a2fe       0x12ed build/default/production/_ext/1360937237/TF_main.o
 .debug_info      0x01b5eb       0x109d build/default/production/_ext/1360937237/Usb_disk.o
 .debug_info      0x01c688        0x8bb build/default/production/_ext/1360937237/cmBeidou.o
 .debug_info      0x01cf43        0x35d build/default/production/_ext/1360937237/cmGprs.o
 .debug_info      0x01d2a0       0x15ef build/default/production/_ext/1360937237/cmGsmSm.o
 .debug_info      0x01e88f       0x16bc build/default/production/_ext/1360937237/DispKey.o
 .debug_info      0x01ff4b        0x1c8 build/default/production/_ext/1360937237/cmWifi.o
 .debug_info      0x020113         0x89 build/default/production/ezbl_integration/ex_boot_uart.merge.o
 *(.gnu.linkonce.wi.*)

.debug_abbrev     0x000000       0x2fc4
 *(.debug_abbrev)
 .debug_abbrev    0x000000         0xe0 build/default/production/_ext/1360937237/Adc.o
 .debug_abbrev    0x0000e0        0x1d6 build/default/production/_ext/1360937237/Calendar.o
 .debug_abbrev    0x0002b6        0x2b4 build/default/production/_ext/1360937237/Comm232.o
 .debug_abbrev    0x00056a         0x34 build/default/production/_ext/1360937237/DEBUG.o
 .debug_abbrev    0x00059e        0x167 build/default/production/_ext/1360937237/DS18B20.o
 .debug_abbrev    0x000705        0x200 build/default/production/_ext/1360937237/In_Sensor.o
 .debug_abbrev    0x000905        0x111 build/default/production/_ext/1360937237/In_Setup.o
 .debug_abbrev    0x000a16         0xd5 build/default/production/_ext/1360937237/In_Sys.o
 .debug_abbrev    0x000aeb        0x1f7 build/default/production/_ext/1360937237/Init.o
 .debug_abbrev    0x000ce2        0x1f8 build/default/production/_ext/1360937237/Lcd.o
 .debug_abbrev    0x000eda        0x2cc build/default/production/_ext/1360937237/Main.o
 .debug_abbrev    0x0011a6        0x1c8 build/default/production/_ext/1360937237/MakeMsg.o
 .debug_abbrev    0x00136e        0x13f build/default/production/_ext/1360937237/Power.o
 .debug_abbrev    0x0014ad         0xe3 build/default/production/_ext/1360937237/R4571.o
 .debug_abbrev    0x001590        0x16c build/default/production/_ext/1360937237/ReadPort.o
 .debug_abbrev    0x0016fc        0x170 build/default/production/_ext/1360937237/Record.o
 .debug_abbrev    0x00186c        0x1d2 build/default/production/_ext/1360937237/Regist.o
 .debug_abbrev    0x001a3e        0x234 build/default/production/_ext/1360937237/Reports.o
 .debug_abbrev    0x001c72        0x14a build/default/production/_ext/1360937237/SerialSensor.o
 .debug_abbrev    0x001dbc        0x1eb build/default/production/_ext/1360937237/Spi.o
 .debug_abbrev    0x001fa7        0x1be build/default/production/_ext/1360937237/Sub.o
 .debug_abbrev    0x002165        0x201 build/default/production/_ext/1360937237/TF_Ch376Func.o
 .debug_abbrev    0x002366        0x1a5 build/default/production/_ext/1360937237/TF_FileSys.o
 .debug_abbrev    0x00250b        0x211 build/default/production/_ext/1360937237/TF_main.o
 .debug_abbrev    0x00271c        0x20f build/default/production/_ext/1360937237/Usb_disk.o
 .debug_abbrev    0x00292b        0x15f build/default/production/_ext/1360937237/cmBeidou.o
 .debug_abbrev    0x002a8a         0xa6 build/default/production/_ext/1360937237/cmGprs.o
 .debug_abbrev    0x002b30        0x19d build/default/production/_ext/1360937237/cmGsmSm.o
 .debug_abbrev    0x002ccd        0x26b build/default/production/_ext/1360937237/DispKey.o
 .debug_abbrev    0x002f38         0x78 build/default/production/_ext/1360937237/cmWifi.o
 .debug_abbrev    0x002fb0         0x14 build/default/production/ezbl_integration/ex_boot_uart.merge.o

.debug_line       0x000000      0x11ae0
 *(.debug_line)
 .debug_line      0x000000        0x262 build/default/production/_ext/1360937237/Adc.o
 .debug_line      0x000262        0x8d2 build/default/production/_ext/1360937237/Calendar.o
 .debug_line      0x000b34       0x133c build/default/production/_ext/1360937237/Comm232.o
 .debug_line      0x001e70         0x58 build/default/production/_ext/1360937237/DEBUG.o
 .debug_line      0x001ec8        0x527 build/default/production/_ext/1360937237/DS18B20.o
 .debug_line      0x0023ef        0xcca build/default/production/_ext/1360937237/In_Sensor.o
 .debug_line      0x0030b9        0x67a build/default/production/_ext/1360937237/In_Setup.o
 .debug_line      0x003733        0x3bb build/default/production/_ext/1360937237/In_Sys.o
 .debug_line      0x003aee        0x802 build/default/production/_ext/1360937237/Init.o
 .debug_line      0x0042f0        0x668 build/default/production/_ext/1360937237/Lcd.o
 .debug_line      0x004958       0x19c6 build/default/production/_ext/1360937237/Main.o
 .debug_line      0x00631e        0x67a build/default/production/_ext/1360937237/MakeMsg.o
 .debug_line      0x006998        0x24e build/default/production/_ext/1360937237/Power.o
 .debug_line      0x006be6        0x4de build/default/production/_ext/1360937237/R4571.o
 .debug_line      0x0070c4        0x34c build/default/production/_ext/1360937237/ReadPort.o
 .debug_line      0x007410        0x9fe build/default/production/_ext/1360937237/Record.o
 .debug_line      0x007e0e       0x10bc build/default/production/_ext/1360937237/Regist.o
 .debug_line      0x008eca        0xe77 build/default/production/_ext/1360937237/Reports.o
 .debug_line      0x009d41        0x4fa build/default/production/_ext/1360937237/SerialSensor.o
 .debug_line      0x00a23b        0x643 build/default/production/_ext/1360937237/Spi.o
 .debug_line      0x00a87e       0x108d build/default/production/_ext/1360937237/Sub.o
 .debug_line      0x00b90b        0x616 build/default/production/_ext/1360937237/TF_Ch376Func.o
 .debug_line      0x00bf21       0x1220 build/default/production/_ext/1360937237/TF_FileSys.o
 .debug_line      0x00d141        0xf6e build/default/production/_ext/1360937237/TF_main.o
 .debug_line      0x00e0af        0xcfb build/default/production/_ext/1360937237/Usb_disk.o
 .debug_line      0x00edaa        0x558 build/default/production/_ext/1360937237/cmBeidou.o
 .debug_line      0x00f302        0x2e3 build/default/production/_ext/1360937237/cmGprs.o
 .debug_line      0x00f5e5       0x142e build/default/production/_ext/1360937237/cmGsmSm.o
 .debug_line      0x010a13        0xf01 build/default/production/_ext/1360937237/DispKey.o
 .debug_line      0x011914        0x179 build/default/production/_ext/1360937237/cmWifi.o
 .debug_line      0x011a8d         0x53 build/default/production/ezbl_integration/ex_boot_uart.merge.o

.debug_frame      0x000000       0x29a4
 *(.debug_frame)
 .debug_frame     0x000000         0x54 build/default/production/_ext/1360937237/Adc.o
 .debug_frame     0x000054        0x134 build/default/production/_ext/1360937237/Calendar.o
 .debug_frame     0x000188        0x374 build/default/production/_ext/1360937237/Comm232.o
 .debug_frame     0x0004fc         0x24 build/default/production/_ext/1360937237/DEBUG.o
 .debug_frame     0x000520         0xd4 build/default/production/_ext/1360937237/DS18B20.o
 .debug_frame     0x0005f4        0x1a4 build/default/production/_ext/1360937237/In_Sensor.o
 .debug_frame     0x000798         0xe4 build/default/production/_ext/1360937237/In_Setup.o
 .debug_frame     0x00087c         0x74 build/default/production/_ext/1360937237/In_Sys.o
 .debug_frame     0x0008f0         0xd4 build/default/production/_ext/1360937237/Init.o
 .debug_frame     0x0009c4         0xc4 build/default/production/_ext/1360937237/Lcd.o
 .debug_frame     0x000a88        0x384 build/default/production/_ext/1360937237/Main.o
 .debug_frame     0x000e0c         0xa4 build/default/production/_ext/1360937237/MakeMsg.o
 .debug_frame     0x000eb0         0x88 build/default/production/_ext/1360937237/Power.o
 .debug_frame     0x000f38         0x64 build/default/production/_ext/1360937237/R4571.o
 .debug_frame     0x000f9c         0x74 build/default/production/_ext/1360937237/ReadPort.o
 .debug_frame     0x001010        0x134 build/default/production/_ext/1360937237/Record.o
 .debug_frame     0x001144        0x1e0 build/default/production/_ext/1360937237/Regist.o
 .debug_frame     0x001324        0x1bc build/default/production/_ext/1360937237/Reports.o
 .debug_frame     0x0014e0         0xd8 build/default/production/_ext/1360937237/SerialSensor.o
 .debug_frame     0x0015b8        0x134 build/default/production/_ext/1360937237/Spi.o
 .debug_frame     0x0016ec        0x3e0 build/default/production/_ext/1360937237/Sub.o
 .debug_frame     0x001acc        0x14c build/default/production/_ext/1360937237/TF_Ch376Func.o
 .debug_frame     0x001c18        0x2b4 build/default/production/_ext/1360937237/TF_FileSys.o
 .debug_frame     0x001ecc        0x2c0 build/default/production/_ext/1360937237/TF_main.o
 .debug_frame     0x00218c        0x17c build/default/production/_ext/1360937237/Usb_disk.o
 .debug_frame     0x002308         0xb8 build/default/production/_ext/1360937237/cmBeidou.o
 .debug_frame     0x0023c0         0x84 build/default/production/_ext/1360937237/cmGprs.o
 .debug_frame     0x002444        0x28c build/default/production/_ext/1360937237/cmGsmSm.o
 .debug_frame     0x0026d0        0x2b0 build/default/production/_ext/1360937237/DispKey.o
 .debug_frame     0x002980         0x24 build/default/production/_ext/1360937237/cmWifi.o

.debug_str        0x000000        0xe91
 *(.debug_str)
 .debug_str       0x000000         0x61 build/default/production/_ext/1360937237/Adc.o
 .debug_str       0x000061         0x28 build/default/production/_ext/1360937237/Calendar.o
 .debug_str       0x000089        0x1a3 build/default/production/_ext/1360937237/Comm232.o
 .debug_str       0x00022c         0x20 build/default/production/_ext/1360937237/DS18B20.o
 .debug_str       0x00024c         0x8e build/default/production/_ext/1360937237/In_Sensor.o
 .debug_str       0x0002da         0x82 build/default/production/_ext/1360937237/In_Setup.o
 .debug_str       0x00035c        0x2be build/default/production/_ext/1360937237/Init.o
 .debug_str       0x00061a         0x7a build/default/production/_ext/1360937237/Lcd.o
 .debug_str       0x000694        0x27c build/default/production/_ext/1360937237/Main.o
 .debug_str       0x000910         0x22 build/default/production/_ext/1360937237/MakeMsg.o
 .debug_str       0x000932         0x50 build/default/production/_ext/1360937237/Power.o
 .debug_str       0x000982         0x31 build/default/production/_ext/1360937237/R4571.o
 .debug_str       0x0009b3         0x32 build/default/production/_ext/1360937237/ReadPort.o
 .debug_str       0x0009e5         0x36 build/default/production/_ext/1360937237/Record.o
 .debug_str       0x000a1b         0x91 build/default/production/_ext/1360937237/Regist.o
 .debug_str       0x000aac         0x80 build/default/production/_ext/1360937237/Reports.o
 .debug_str       0x000b2c         0x1d build/default/production/_ext/1360937237/SerialSensor.o
 .debug_str       0x000b49         0x4a build/default/production/_ext/1360937237/Spi.o
 .debug_str       0x000b93         0x6b build/default/production/_ext/1360937237/Sub.o
 .debug_str       0x000bfe         0x1c build/default/production/_ext/1360937237/TF_Ch376Func.o
 .debug_str       0x000c1a         0x39 build/default/production/_ext/1360937237/TF_FileSys.o
 .debug_str       0x000c53         0x7c build/default/production/_ext/1360937237/TF_main.o
 .debug_str       0x000ccf         0x73 build/default/production/_ext/1360937237/Usb_disk.o
 .debug_str       0x000d42         0x27 build/default/production/_ext/1360937237/cmBeidou.o
 .debug_str       0x000d69         0xb7 build/default/production/_ext/1360937237/cmGsmSm.o
 .debug_str       0x000e20         0x71 build/default/production/_ext/1360937237/DispKey.o

.debug_loc
 *(.debug_loc)

.debug_macinfo
 *(.debug_macinfo)

.debug_pubnames
                  0x000000       0x2b43
 *(.debug_pubnames)
 .debug_pubnames
                  0x000000         0x4a build/default/production/_ext/1360937237/Adc.o
 .debug_pubnames
                  0x00004a        0x14f build/default/production/_ext/1360937237/Calendar.o
 .debug_pubnames
                  0x000199        0x2db build/default/production/_ext/1360937237/Comm232.o
 .debug_pubnames
                  0x000474         0x1c build/default/production/_ext/1360937237/DEBUG.o
 .debug_pubnames
                  0x000490        0x176 build/default/production/_ext/1360937237/DS18B20.o
 .debug_pubnames
                  0x000606        0x233 build/default/production/_ext/1360937237/In_Sensor.o
 .debug_pubnames
                  0x000839        0x1bf build/default/production/_ext/1360937237/In_Setup.o
 .debug_pubnames
                  0x0009f8         0x60 build/default/production/_ext/1360937237/In_Sys.o
 .debug_pubnames
                  0x000a58        0x130 build/default/production/_ext/1360937237/Init.o
 .debug_pubnames
                  0x000b88         0xc2 build/default/production/_ext/1360937237/Lcd.o
 .debug_pubnames
                  0x000c4a        0x710 build/default/production/_ext/1360937237/Main.o
 .debug_pubnames
                  0x00135a         0x2e build/default/production/_ext/1360937237/MakeMsg.o
 .debug_pubnames
                  0x001388         0x64 build/default/production/_ext/1360937237/Power.o
 .debug_pubnames
                  0x0013ec         0x71 build/default/production/_ext/1360937237/R4571.o
 .debug_pubnames
                  0x00145d         0x6a build/default/production/_ext/1360937237/ReadPort.o
 .debug_pubnames
                  0x0014c7        0x138 build/default/production/_ext/1360937237/Record.o
 .debug_pubnames
                  0x0015ff        0x197 build/default/production/_ext/1360937237/Regist.o
 .debug_pubnames
                  0x001796        0x13f build/default/production/_ext/1360937237/Reports.o
 .debug_pubnames
                  0x0018d5         0x86 build/default/production/_ext/1360937237/SerialSensor.o
 .debug_pubnames
                  0x00195b        0x14d build/default/production/_ext/1360937237/Spi.o
 .debug_pubnames
                  0x001aa8        0x30d build/default/production/_ext/1360937237/Sub.o
 .debug_pubnames
                  0x001db5        0x132 build/default/production/_ext/1360937237/TF_Ch376Func.o
 .debug_pubnames
                  0x001ee7        0x38e build/default/production/_ext/1360937237/TF_FileSys.o
 .debug_pubnames
                  0x002275        0x1dd build/default/production/_ext/1360937237/TF_main.o
 .debug_pubnames
                  0x002452        0x149 build/default/production/_ext/1360937237/Usb_disk.o
 .debug_pubnames
                  0x00259b         0x9f build/default/production/_ext/1360937237/cmBeidou.o
 .debug_pubnames
                  0x00263a         0x83 build/default/production/_ext/1360937237/cmGprs.o
 .debug_pubnames
                  0x0026bd        0x275 build/default/production/_ext/1360937237/cmGsmSm.o
 .debug_pubnames
                  0x002932        0x1ec build/default/production/_ext/1360937237/DispKey.o
 .debug_pubnames
                  0x002b1e         0x25 build/default/production/_ext/1360937237/cmWifi.o

.debug_ranges
 *(.debug_ranges)

.debug_aranges    0x000000        0x2e8
 *(.debug_aranges)
 .debug_aranges
                  0x000000         0x18 build/default/production/_ext/1360937237/Adc.o
 .debug_aranges
                  0x000018         0x18 build/default/production/_ext/1360937237/Calendar.o
 .debug_aranges
                  0x000030         0x18 build/default/production/_ext/1360937237/Comm232.o
 .debug_aranges
                  0x000048         0x18 build/default/production/_ext/1360937237/DEBUG.o
 .debug_aranges
                  0x000060         0x18 build/default/production/_ext/1360937237/DS18B20.o
 .debug_aranges
                  0x000078         0x18 build/default/production/_ext/1360937237/In_Sensor.o
 .debug_aranges
                  0x000090         0x18 build/default/production/_ext/1360937237/In_Setup.o
 .debug_aranges
                  0x0000a8         0x18 build/default/production/_ext/1360937237/In_Sys.o
 .debug_aranges
                  0x0000c0         0x18 build/default/production/_ext/1360937237/Init.o
 .debug_aranges
                  0x0000d8         0x18 build/default/production/_ext/1360937237/Lcd.o
 .debug_aranges
                  0x0000f0         0x18 build/default/production/_ext/1360937237/Main.o
 .debug_aranges
                  0x000108         0x18 build/default/production/_ext/1360937237/MakeMsg.o
 .debug_aranges
                  0x000120         0x18 build/default/production/_ext/1360937237/Power.o
 .debug_aranges
                  0x000138         0x18 build/default/production/_ext/1360937237/R4571.o
 .debug_aranges
                  0x000150         0x18 build/default/production/_ext/1360937237/ReadPort.o
 .debug_aranges
                  0x000168         0x18 build/default/production/_ext/1360937237/Record.o
 .debug_aranges
                  0x000180         0x18 build/default/production/_ext/1360937237/Regist.o
 .debug_aranges
                  0x000198         0x18 build/default/production/_ext/1360937237/Reports.o
 .debug_aranges
                  0x0001b0         0x18 build/default/production/_ext/1360937237/SerialSensor.o
 .debug_aranges
                  0x0001c8         0x18 build/default/production/_ext/1360937237/Spi.o
 .debug_aranges
                  0x0001e0         0x18 build/default/production/_ext/1360937237/Sub.o
 .debug_aranges
                  0x0001f8         0x18 build/default/production/_ext/1360937237/TF_Ch376Func.o
 .debug_aranges
                  0x000210         0x18 build/default/production/_ext/1360937237/TF_FileSys.o
 .debug_aranges
                  0x000228         0x18 build/default/production/_ext/1360937237/TF_main.o
 .debug_aranges
                  0x000240         0x18 build/default/production/_ext/1360937237/Usb_disk.o
 .debug_aranges
                  0x000258         0x18 build/default/production/_ext/1360937237/cmBeidou.o
 .debug_aranges
                  0x000270         0x18 build/default/production/_ext/1360937237/cmGprs.o
 .debug_aranges
                  0x000288         0x18 build/default/production/_ext/1360937237/cmGsmSm.o
 .debug_aranges
                  0x0002a0         0x18 build/default/production/_ext/1360937237/DispKey.o
 .debug_aranges
                  0x0002b8         0x18 build/default/production/_ext/1360937237/cmWifi.o
 .debug_aranges
                  0x0002d0         0x18 build/default/production/ezbl_integration/ex_boot_uart.merge.o
START GROUP
LOAD c:/program files (x86)/microchip/xc16/v1.20/bin/bin/../../lib\libfx-elf.a
LOAD c:/program files (x86)/microchip/xc16/v1.20/bin/bin/../../lib\libpic30-elf.a
LOAD c:/program files (x86)/microchip/xc16/v1.20/bin/bin/../../lib\libm-elf.a
LOAD c:/program files (x86)/microchip/xc16/v1.20/bin/bin/../../lib\libc-elf.a
END GROUP
OUTPUT(dist/default/production/Mix.X.production.elf elf32-pic30)
LOAD default_isr
LOAD data_init

.debug_pubtypes
                  0x0002e8       0x18ad
 .debug_pubtypes
                  0x0002e8        0x11a build/default/production/_ext/1360937237/Adc.o
 .debug_pubtypes
                  0x000402         0x71 build/default/production/_ext/1360937237/Calendar.o
 .debug_pubtypes
                  0x000473        0x270 build/default/production/_ext/1360937237/Comm232.o
 .debug_pubtypes
                  0x0006e3         0x12 build/default/production/_ext/1360937237/DEBUG.o
 .debug_pubtypes
                  0x0006f5         0x50 build/default/production/_ext/1360937237/DS18B20.o
 .debug_pubtypes
                  0x000745         0xdc build/default/production/_ext/1360937237/In_Sensor.o
 .debug_pubtypes
                  0x000821         0x12 build/default/production/_ext/1360937237/In_Setup.o
 .debug_pubtypes
                  0x000833         0x12 build/default/production/_ext/1360937237/In_Sys.o
 .debug_pubtypes
                  0x000845        0x5f0 build/default/production/_ext/1360937237/Init.o
 .debug_pubtypes
                  0x000e35        0x119 build/default/production/_ext/1360937237/Lcd.o
 .debug_pubtypes
                  0x000f4e        0x35b build/default/production/_ext/1360937237/Main.o
 .debug_pubtypes
                  0x0012a9         0x54 build/default/production/_ext/1360937237/MakeMsg.o
 .debug_pubtypes
                  0x0012fd        0x10a build/default/production/_ext/1360937237/Power.o
 .debug_pubtypes
                  0x001407         0x8e build/default/production/_ext/1360937237/R4571.o
 .debug_pubtypes
                  0x001495         0x59 build/default/production/_ext/1360937237/ReadPort.o
 .debug_pubtypes
                  0x0014ee         0x2c build/default/production/_ext/1360937237/Record.o
 .debug_pubtypes
                  0x00151a         0x49 build/default/production/_ext/1360937237/Regist.o
 .debug_pubtypes
                  0x001563         0xa8 build/default/production/_ext/1360937237/Reports.o
 .debug_pubtypes
                  0x00160b         0x2b build/default/production/_ext/1360937237/SerialSensor.o
 .debug_pubtypes
                  0x001636         0xa7 build/default/production/_ext/1360937237/Spi.o
 .debug_pubtypes
                  0x0016dd         0xdf build/default/production/_ext/1360937237/Sub.o
 .debug_pubtypes
                  0x0017bc         0x5e build/default/production/_ext/1360937237/TF_Ch376Func.o
 .debug_pubtypes
                  0x00181a         0x69 build/default/production/_ext/1360937237/TF_FileSys.o
 .debug_pubtypes
                  0x001883         0xa0 build/default/production/_ext/1360937237/TF_main.o
 .debug_pubtypes
                  0x001923         0xa3 build/default/production/_ext/1360937237/Usb_disk.o
 .debug_pubtypes
                  0x0019c6         0x63 build/default/production/_ext/1360937237/cmBeidou.o
 .debug_pubtypes
                  0x001a29         0x12 build/default/production/_ext/1360937237/cmGprs.o
 .debug_pubtypes
                  0x001a3b         0x6d build/default/production/_ext/1360937237/cmGsmSm.o
 .debug_pubtypes
                  0x001aa8         0xdb build/default/production/_ext/1360937237/DispKey.o
 .debug_pubtypes
                  0x001b83         0x12 build/default/production/_ext/1360937237/cmWifi.o

__c30_signature
                  0x001b96        0x264
 __c30_signature
                  0x001b96          0x6 build/default/production/_ext/1360937237/Adc.o
 __c30_signature
                  0x001b9c          0x6 build/default/production/_ext/1360937237/Calendar.o
 __c30_signature
                  0x001ba2          0x6 build/default/production/_ext/1360937237/Comm232.o
 __c30_signature
                  0x001ba8          0x6 build/default/production/_ext/1360937237/DEBUG.o
 __c30_signature
                  0x001bae          0x6 build/default/production/_ext/1360937237/DS18B20.o
 __c30_signature
                  0x001bb4          0x6 build/default/production/_ext/1360937237/In_Sensor.o
 __c30_signature
                  0x001bba          0x6 build/default/production/_ext/1360937237/In_Setup.o
 __c30_signature
                  0x001bc0          0x6 build/default/production/_ext/1360937237/In_Sys.o
 __c30_signature
                  0x001bc6          0x6 build/default/production/_ext/1360937237/Init.o
 __c30_signature
                  0x001bcc          0x6 build/default/production/_ext/1360937237/Lcd.o
 __c30_signature
                  0x001bd2          0x6 build/default/production/_ext/1360937237/Main.o
 __c30_signature
                  0x001bd8          0x6 build/default/production/_ext/1360937237/MakeMsg.o
 __c30_signature
                  0x001bde          0x6 build/default/production/_ext/1360937237/Power.o
 __c30_signature
                  0x001be4          0x6 build/default/production/_ext/1360937237/R4571.o
 __c30_signature
                  0x001bea          0x6 build/default/production/_ext/1360937237/ReadPort.o
 __c30_signature
                  0x001bf0          0x6 build/default/production/_ext/1360937237/Record.o
 __c30_signature
                  0x001bf6          0x6 build/default/production/_ext/1360937237/Regist.o
 __c30_signature
                  0x001bfc          0x6 build/default/production/_ext/1360937237/Reports.o
 __c30_signature
                  0x001c02          0x6 build/default/production/_ext/1360937237/SerialSensor.o
 __c30_signature
                  0x001c08          0x6 build/default/production/_ext/1360937237/Spi.o
 __c30_signature
                  0x001c0e          0x6 build/default/production/_ext/1360937237/Sub.o
 __c30_signature
                  0x001c14          0x6 build/default/production/_ext/1360937237/TF_Ch376Func.o
 __c30_signature
                  0x001c1a          0x6 build/default/production/_ext/1360937237/TF_FileSys.o
 __c30_signature
                  0x001c20          0x6 build/default/production/_ext/1360937237/TF_main.o
 __c30_signature
                  0x001c26          0x6 build/default/production/_ext/1360937237/Usb_disk.o
 __c30_signature
                  0x001c2c          0x6 build/default/production/_ext/1360937237/cmBeidou.o
 __c30_signature
                  0x001c32          0x6 build/default/production/_ext/1360937237/cmGprs.o
 __c30_signature
                  0x001c38          0x6 build/default/production/_ext/1360937237/cmGsmSm.o
 __c30_signature
                  0x001c3e          0x6 build/default/production/_ext/1360937237/DispKey.o
 __c30_signature
                  0x001c44          0x6 build/default/production/_ext/1360937237/cmWifi.o
 __c30_signature
                  0x001c4a          0x6 c:/program files (x86)/microchip/xc16/v1.20/bin/bin/../../lib\libpic30-elf.a(crt0_standard.o)
 __c30_signature
                  0x001c50          0x6 c:/program files (x86)/microchip/xc16/v1.20/bin/bin/../../lib\libpic30-elf.a(data_init_standard.o)
 __c30_signature
                  0x001c56          0x6 c:/program files (x86)/microchip/xc16/v1.20/bin/bin/../../lib\libm-elf.a(addsf3.eo)
 __c30_signature
                  0x001c5c          0x6 c:/program files (x86)/microchip/xc16/v1.20/bin/bin/../../lib\libm-elf.a(feqltle.eo)
 __c30_signature
                  0x001c62          0x6 c:/program files (x86)/microchip/xc16/v1.20/bin/bin/../../lib\libm-elf.a(fgtge.eo)
 __c30_signature
                  0x001c68          0x6 c:/program files (x86)/microchip/xc16/v1.20/bin/bin/../../lib\libm-elf.a(fixsfsi.eo)
 __c30_signature
                  0x001c6e          0x6 c:/program files (x86)/microchip/xc16/v1.20/bin/bin/../../lib\libm-elf.a(fixunssfsi.eo)
 __c30_signature
                  0x001c74          0x6 c:/program files (x86)/microchip/xc16/v1.20/bin/bin/../../lib\libm-elf.a(floatunsisf.eo)
 __c30_signature
                  0x001c7a          0x6 c:/program files (x86)/microchip/xc16/v1.20/bin/bin/../../lib\libm-elf.a(fpack.eo)
 __c30_signature
                  0x001c80          0x6 c:/program files (x86)/microchip/xc16/v1.20/bin/bin/../../lib\libm-elf.a(funpack.eo)
 __c30_signature
                  0x001c86          0x6 c:/program files (x86)/microchip/xc16/v1.20/bin/bin/../../lib\libm-elf.a(funpack2.eo)
 __c30_signature
                  0x001c8c          0x6 c:/program files (x86)/microchip/xc16/v1.20/bin/bin/../../lib\libm-elf.a(futil.eo)
 __c30_signature
                  0x001c92          0x6 c:/program files (x86)/microchip/xc16/v1.20/bin/bin/../../lib\libm-elf.a(modsi3.eo)
 __c30_signature
                  0x001c98          0x6 c:/program files (x86)/microchip/xc16/v1.20/bin/bin/../../lib\libm-elf.a(mulsf3.eo)
 __c30_signature
                  0x001c9e          0x6 c:/program files (x86)/microchip/xc16/v1.20/bin/bin/../../lib\libm-elf.a(umodsi3.eo)
 __c30_signature
                  0x001ca4          0x6 c:/program files (x86)/microchip/xc16/v1.20/bin/bin/../../lib\libm-elf.a(fcompare.eo)
 __c30_signature
                  0x001caa          0x6 c:/program files (x86)/microchip/xc16/v1.20/bin/bin/../../lib\libm-elf.a(floatundisf.eo)
 __c30_signature
                  0x001cb0          0x6 c:/program files (x86)/microchip/xc16/v1.20/bin/bin/../../lib\libc-elf.a(atof.eo)
 __c30_signature
                  0x001cb6          0x6 c:/program files (x86)/microchip/xc16/v1.20/bin/bin/../../lib\libc-elf.a(atoi.eo)
 __c30_signature
                  0x001cbc          0x6 c:/program files (x86)/microchip/xc16/v1.20/bin/bin/../../lib\libc-elf.a(atol.eo)
 __c30_signature
                  0x001cc2          0x6 c:/program files (x86)/microchip/xc16/v1.20/bin/bin/../../lib\libc-elf.a(errno.eo)
 __c30_signature
                  0x001cc8          0x6 c:/program files (x86)/microchip/xc16/v1.20/bin/bin/../../lib\libc-elf.a(memset.eo)
 __c30_signature
                  0x001cce          0x6 c:/program files (x86)/microchip/xc16/v1.20/bin/bin/../../lib\libc-elf.a(strcat.eo)
 __c30_signature
                  0x001cd4          0x6 c:/program files (x86)/microchip/xc16/v1.20/bin/bin/../../lib\libc-elf.a(strchr.eo)
 __c30_signature
                  0x001cda          0x6 c:/program files (x86)/microchip/xc16/v1.20/bin/bin/../../lib\libc-elf.a(strcpy.eo)
 __c30_signature
                  0x001ce0          0x6 c:/program files (x86)/microchip/xc16/v1.20/bin/bin/../../lib\libc-elf.a(strlen.eo)
 __c30_signature
                  0x001ce6          0x6 c:/program files (x86)/microchip/xc16/v1.20/bin/bin/../../lib\libc-elf.a(doscan_cdnopuxX.XXeo)
 __c30_signature
                  0x001cec          0x6 c:/program files (x86)/microchip/xc16/v1.20/bin/bin/../../lib\libc-elf.a(doscan_cdfFnopuxX.XXeo)
 __c30_signature
                  0x001cf2          0x6 c:/program files (x86)/microchip/xc16/v1.20/bin/bin/../../lib\libc-elf.a(atof_cdfFnopuxX.dXXeo)
 __c30_signature
                  0x001cf8          0x6 c:/program files (x86)/microchip/xc16/v1.20/bin/bin/../../lib\libc-elf.a(sprintf_cdfFnopsuxX.XXeo)
 __c30_signature
                  0x001cfe          0x6 c:/program files (x86)/microchip/xc16/v1.20/bin/bin/../../lib\libc-elf.a(sscanf_cdfFnopsuxX.XXeo)
 __c30_signature
                  0x001d04          0x6 c:/program files (x86)/microchip/xc16/v1.20/bin/bin/../../lib\libc-elf.a(doscan_cdfFnopsuxX.XXeo)
 __c30_signature
                  0x001d0a          0x6 c:/program files (x86)/microchip/xc16/v1.20/bin/bin/../../lib\libc-elf.a(doprnt_cdfFnopsuxX.XXeo)
 __c30_signature
                  0x001d10          0x6 c:/program files (x86)/microchip/xc16/v1.20/bin/bin/../../lib\libc-elf.a(doscan_cdnopsuxX.XXeo)
 __c30_signature
                  0x001d16          0x6 c:/program files (x86)/microchip/xc16/v1.20/bin/bin/../../lib\libc-elf.a(fgetc.eo)
 __c30_signature
                  0x001d1c          0x6 c:/program files (x86)/microchip/xc16/v1.20/bin/bin/../../lib\libc-elf.a(filbuf.eo)
 __c30_signature
                  0x001d22          0x6 c:/program files (x86)/microchip/xc16/v1.20/bin/bin/../../lib\libc-elf.a(fputc.eo)
 __c30_signature
                  0x001d28          0x6 c:/program files (x86)/microchip/xc16/v1.20/bin/bin/../../lib\libc-elf.a(powers.eo)
 __c30_signature
                  0x001d2e          0x6 c:/program files (x86)/microchip/xc16/v1.20/bin/bin/../../lib\libc-elf.a(ungetc.eo)
 __c30_signature
                  0x001d34          0x6 c:/program files (x86)/microchip/xc16/v1.20/bin/bin/../../lib\libc-elf.a(_iob.eo)
 __c30_signature
                  0x001d3a          0x6 c:/program files (x86)/microchip/xc16/v1.20/bin/bin/../../lib\libc-elf.a(fflush.eo)
 __c30_signature
                  0x001d40          0x6 c:/program files (x86)/microchip/xc16/v1.20/bin/bin/../../lib\libc-elf.a(flsbuf.eo)
 __c30_signature
                  0x001d46          0x6 c:/program files (x86)/microchip/xc16/v1.20/bin/bin/../../lib\libpic30-elf.a(read.eo)
 __c30_signature
                  0x001d4c          0x6 c:/program files (x86)/microchip/xc16/v1.20/bin/bin/../../lib\libpic30-elf.a(write.eo)
 __c30_signature
                  0x001d52          0x6 c:/program files (x86)/microchip/xc16/v1.20/bin/bin/../../lib\libm-elf.a(adddf3.eo)
 __c30_signature
                  0x001d58          0x6 c:/program files (x86)/microchip/xc16/v1.20/bin/bin/../../lib\libm-elf.a(deqltle.eo)
 __c30_signature
                  0x001d5e          0x6 c:/program files (x86)/microchip/xc16/v1.20/bin/bin/../../lib\libm-elf.a(dgtge.eo)
 __c30_signature
                  0x001d64          0x6 c:/program files (x86)/microchip/xc16/v1.20/bin/bin/../../lib\libm-elf.a(divdf3.eo)
 __c30_signature
                  0x001d6a          0x6 c:/program files (x86)/microchip/xc16/v1.20/bin/bin/../../lib\libm-elf.a(divsf3.eo)
 __c30_signature
                  0x001d70          0x6 c:/program files (x86)/microchip/xc16/v1.20/bin/bin/../../lib\libm-elf.a(dne.eo)
 __c30_signature
                  0x001d76          0x6 c:/program files (x86)/microchip/xc16/v1.20/bin/bin/../../lib\libm-elf.a(dpack.eo)
 __c30_signature
                  0x001d7c          0x6 c:/program files (x86)/microchip/xc16/v1.20/bin/bin/../../lib\libm-elf.a(dunpack2.eo)
 __c30_signature
                  0x001d82          0x6 c:/program files (x86)/microchip/xc16/v1.20/bin/bin/../../lib\libm-elf.a(extendsfdf.eo)
 __c30_signature
                  0x001d88          0x6 c:/program files (x86)/microchip/xc16/v1.20/bin/bin/../../lib\libm-elf.a(fixunsdfdi.eo)
 __c30_signature
                  0x001d8e          0x6 c:/program files (x86)/microchip/xc16/v1.20/bin/bin/../../lib\libm-elf.a(floatsidf.eo)
 __c30_signature
                  0x001d94          0x6 c:/program files (x86)/microchip/xc16/v1.20/bin/bin/../../lib\libm-elf.a(floatsisf.eo)
 __c30_signature
                  0x001d9a          0x6 c:/program files (x86)/microchip/xc16/v1.20/bin/bin/../../lib\libm-elf.a(floatundidf.eo)
 __c30_signature
                  0x001da0          0x6 c:/program files (x86)/microchip/xc16/v1.20/bin/bin/../../lib\libm-elf.a(frexpf.eo)
 __c30_signature
                  0x001da6          0x6 c:/program files (x86)/microchip/xc16/v1.20/bin/bin/../../lib\libm-elf.a(muldf3.eo)
 __c30_signature
                  0x001dac          0x6 c:/program files (x86)/microchip/xc16/v1.20/bin/bin/../../lib\libm-elf.a(subdf3.eo)
 __c30_signature
                  0x001db2          0x6 c:/program files (x86)/microchip/xc16/v1.20/bin/bin/../../lib\libm-elf.a(truncdfsf.eo)
 __c30_signature
                  0x001db8          0x6 c:/program files (x86)/microchip/xc16/v1.20/bin/bin/../../lib\libm-elf.a(mulsi3.eo)
 __c30_signature
                  0x001dbe          0x6 c:/program files (x86)/microchip/xc16/v1.20/bin/bin/../../lib\libm-elf.a(divmoddi3.eo)
 __c30_signature
                  0x001dc4          0x6 c:/program files (x86)/microchip/xc16/v1.20/bin/bin/../../lib\libm-elf.a(muldi3.eo)
 __c30_signature
                  0x001dca          0x6 c:/program files (x86)/microchip/xc16/v1.20/bin/bin/../../lib\libm-elf.a(_frexpf.eo)
 __c30_signature
                  0x001dd0          0x6 c:/program files (x86)/microchip/xc16/v1.20/bin/bin/../../lib\libm-elf.a(dcompare.eo)
 __c30_signature
                  0x001dd6          0x6 c:/program files (x86)/microchip/xc16/v1.20/bin/bin/../../lib\libm-elf.a(dpropagateNaN.eo)
 __c30_signature
                  0x001ddc          0x6 c:/program files (x86)/microchip/xc16/v1.20/bin/bin/../../lib\libm-elf.a(dtype.eo)
 __c30_signature
                  0x001de2          0x6 c:/program files (x86)/microchip/xc16/v1.20/bin/bin/../../lib\libm-elf.a(dunpack.eo)
 __c30_signature
                  0x001de8          0x6 c:/program files (x86)/microchip/xc16/v1.20/bin/bin/../../lib\libm-elf.a(floatdidf.eo)
 __c30_signature
                  0x001dee          0x6 c:/program files (x86)/microchip/xc16/v1.20/bin/bin/../../lib\libm-elf.a(floatdisf.eo)
 __c30_signature
                  0x001df4          0x6 c:/program files (x86)/microchip/xc16/v1.20/bin/bin/../../lib\libm-elf.a(umuldi3.eo)

.bss                0x0900       0x18c2
 .bss               0x0900       0x18c2 build/default/production/_ext/1360937237/Main.o
                    0x0900                  _Msg0
                    0x0902                  _Msg1
                    0x0904                  _Msg2
                    0x0906                  _sw1
                    0x0908                  _Error0
                    0x090a                  _Tmr
                    0x090c                  _TmrUp
                    0x090e                  _key
                    0x0910                  _Tasking
                    0x0924                  _ActiveTask
                    0x0925                  _stepINT_REPORT
                    0x0926                  _stepDO_REPORT
                    0x0927                  _Step
                    0x0931                  _ActiveCom
                    0x0932                  _ComOpen
                    0x0937                  _ModemReady
                    0x093c                  _ms_click
                    0x093e                  _sec_click
                    0x0940                  _sec_cmp
                    0x0942                  _iTimeCmp
                    0x0944                  _iIdleKey
                    0x0946                  _iWaitSensorCmp
                    0x0948                  _iRefreshDly
                    0x094a                  _filter_type
                    0x094b                  _ComStatus
                    0x094c                  _minTrans0
                    0x094d                  _fCfgGood
                    0x094e                  _pCmfg
                    0x0950                  _ComSW
                    0x0951                  _cntGModemFailed
                    0x0952                  _cntSensorComFailed
                    0x0953                  _cntMemMirrorFailed
                    0x0954                  _cntRecFailed
                    0x0955                  _cntXmeFailed
                    0x0956                  _cntLCDErr
                    0x0957                  _fLcdReady
                    0x0958                  _fBlinkEnabled
                    0x0959                  _ScrollIndex
                    0x095a                  _CurX
                    0x095b                  _CurY
                    0x095c                  _pFormat
                    0x095e                  _pDefault
                    0x0960                  _ResetCode
                    0x0962                  _pb_count
                    0x0964                  _Srn
                    0x0ca0                  _KeyPollEnabled
                    0x0ca1                  _KeyBlindCount
                    0x0ca2                  _rTime
                    0x0ca8                  _ptr_tx
                    0x0caa                  _Tx_Count
                    0x0cac                  _ptr1_rx
                    0x0cae                  _rx1
                    0x14d6                  _ptr2_rx
                    0x14d8                  _rx2
                    0x1d00                  _ptr3_rx
                    0x1d02                  _rx3
                    0x1e02                  _ptr4_rx
                    0x1e04                  _Port
                    0x2044                  _CellRequest0
                    0x2045                  _CellRequest1
                    0x2046                  _IntC0
                    0x2084                  _c0Table
                    0x20c2                  _cxTable

.data               0x21c2        0x8d0
 .data              0x21c2        0x8d0 build/default/production/_ext/1360937237/Main.o
                    0x21c2                  _sVer
                    0x21d3                  _cfg
                    0x29d4                  _KeyV

.bss                0x2a92        0x38a
 .bss               0x2a92        0x38a build/default/production/_ext/1360937237/TF_main.o
                    0x2a92                  _g_LongNameBuf
                    0x2afa                  _FileNameBuffer
                    0x2dca                  _FileCount
                    0x2dcc                  _pFileName

.data               0x2e1c        0x16c
 .data              0x2e1c        0x16c build/default/production/_ext/1360937237/cmGsmSm.o
                    0x2e1c                  _ROM_LF
                    0x2e1e                  _MQuery_txtRain
                    0x2e38                  _MQuery_txtLevel
                    0x2e4a                  _MQuery_txtId
                    0x2e52                  _MQuery_txtVoltage
                    0x2e5a                  _MQuery_txtCSQ

.data._powers_      0x2f88        0x160
 .data._powers_
                    0x2f88        0x160 c:/program files (x86)/microchip/xc16/v1.20/bin/bin/../../lib\libc-elf.a(powers.eo)
                    0x2f88                  __powers_
                    0x3038                  __npowers_

.data               0x30e8        0x458
 .data              0x30e8        0x15c build/default/production/_ext/1360937237/In_Setup.o
                    0x30e8                  _SensorInName
                    0x3101                  _SensorInVersion
                    0x311a                  _RainSwitch
                    0x313e                  _RainAlarm
                    0x315f                  _EncodeSwitch
                    0x3183                  _EncodeAlarm
                    0x31a6                  _EncodePol
                    0x31ca                  _EncodeCo
                    0x31ec                  _EncodeCurLevel
                    0x320f                  _blank_line
                    0x3220                  _optNext
 .data              0x3244        0x13a build/default/production/_ext/1360937237/Reports.o
 .data              0x337e         0xf0 build/default/production/_ext/1360937237/Usb_disk.o
 .data              0x346e         0xd2 build/default/production/_ext/1360937237/DispKey.o
                    0x346e                  _ROM_0D

.bss                0x3540         0xd2
 .bss               0x3540         0xd2 build/default/production/_ext/1360937237/DispKey.o
                    0x3540                  _ActiveSrn

.data               0x3612         0xa6
 .data              0x3612         0xa6 build/default/production/_ext/1360937237/Comm232.o

.data.dpowers       0x36b8         0xa0
 .data.dpowers      0x36b8         0xa0 c:/program files (x86)/microchip/xc16/v1.20/bin/bin/../../lib\libc-elf.a(doprnt_cdfFnopsuxX.XXeo)

.data               0x3758        0x1c2
 .data              0x3758         0x7a build/default/production/_ext/1360937237/TF_main.o
                    0x3758                  _g_uchSDInserFlg
                    0x375a                  _b_IniFlag
 .data              0x37d2         0x6e build/default/production/_ext/1360937237/TF_Ch376Func.o
 .data              0x3840         0x6e build/default/production/_ext/1360937237/cmBeidou.o
 .data              0x38ae         0x6c build/default/production/_ext/1360937237/cmGprs.o

.bss                0x391a         0x64
 .bss               0x391a         0x64 build/default/production/_ext/1360937237/In_Setup.o
                    0x391a                  _screen

.data               0x397e         0x5a
 .data              0x397e         0x5a build/default/production/_ext/1360937237/cmWifi.o

.bss                0x0800         0x46
 .bss               0x0800         0x46 build/default/production/_ext/1360937237/Reports.o
                    0x0802                  _queue

.bss                0x39d8         0x80
 .bss               0x39d8         0x40 build/default/production/_ext/1360937237/SerialSensor.o
                    0x39d8                  _Stream
 .bss               0x3a18         0x40 build/default/production/_ext/1360937237/TF_FileSys.o
                    0x3a18                  _buf

.data               0x3a58         0xd8
 .data              0x3a58         0x3a build/default/production/_ext/1360937237/Power.o
 .data              0x3a92         0x36 build/default/production/_ext/1360937237/Calendar.o
                    0x3a92                  _yy0
                    0x3a9e                  _yy1
                    0x3aaa                  _debug_tel
 .data              0x3ac8         0x36 build/default/production/_ext/1360937237/Regist.o
 .data              0x3afe         0x32 build/default/production/_ext/1360937237/DS18B20.o
                    0x3afe                  _decimalH
                    0x3b0e                  _decimalL
                    0x3b1e                  _MacID
                    0x3b26                  _Temperature

.bss                0x3b30         0x2c
 .bss               0x3b30         0x2c build/default/production/_ext/1360937237/In_Sensor.o
                    0x3b30                  _rain_stop
                    0x3b32                  _rain_count
                    0x3b34                  _uCSQ
                    0x3b36                  _uBDQ
                    0x3b38                  _wEncode
                    0x3b3a                  _wEncode2
                    0x3b3c                  _OldLevel
                    0x3b3e                  _Temp
                    0x3b40                  _Vol
                    0x3b42                  _MinuteBase
                    0x3b4a                  _HourBase
                    0x3b52                  _DayBase

.data               0x3b5c         0x2a
 .data              0x3b5c         0x2a c:/program files (x86)/microchip/xc16/v1.20/bin/bin/../../lib\libc-elf.a(doprnt_cdfFnopsuxX.XXeo)

.data._iob          0x3b86         0x26
 .data._iob         0x3b86         0x26 c:/program files (x86)/microchip/xc16/v1.20/bin/bin/../../lib\libc-elf.a(_iob.eo)
                    0x3b86                  __iob
                    0x3baa                  __Files

.data               0x3bac         0x20
 .data              0x3bac         0x20 build/default/production/_ext/1360937237/In_Sensor.o

.bss                0x3bcc         0x18
 .bss               0x3bcc         0x18 build/default/production/_ext/1360937237/DS18B20.o
                    0x3bcc                  _ResultTemperatureLH
                    0x3bcd                  _ResultTemperatureH
                    0x3bce                  _ResultTemperatureLL
                    0x3bd0                  _A
                    0x3bd2                  _B
                    0x3bd4                  _C
                    0x3bd6                  _D
                    0x3bd8                  _E
                    0x3bda                  _F
                    0x3bdc                  _G
                    0x3bde                  _H
                    0x3be0                  _I
                    0x3be2                  _J

.data               0x3be4          0xe
 .data              0x3be4          0xe build/default/production/_ext/1360937237/MakeMsg.o

.bss                0x0846          0xa
 .bss               0x0846          0xa build/default/production/_ext/1360937237/Init.o
                    0x0846                  _IPL_CPU
                    0x0847                  _IPL_Lvd
                    0x0848                  _IPL_Timer2
                    0x0849                  _IPL_Calendar
                    0x084a                  _IPL_Rain
                    0x084b                  _IPL_U1rx
                    0x084c                  _IPL_U2rx
                    0x084d                  _IPL_AD
                    0x084e                  _IPL_CN

.data               0x3bf2         0x12
 .data              0x3bf2          0xa build/default/production/_ext/1360937237/SerialSensor.o
 .data              0x3bfc          0x8 build/default/production/_ext/1360937237/Sub.o

.bss                0x3c04          0xa
 .bss               0x3c04          0x6 c:/program files (x86)/microchip/xc16/v1.20/bin/bin/../../lib\libc-elf.a(_iob.eo)
                    0x3c04                  __outdone
                    0x3c05                  __sibuf
                    0x3c07                  __sobuf
 .bss               0x3c0a          0x4 build/default/production/_ext/1360937237/Regist.o
                    0x3c0a                  _stepGET_RESP

.data               0x3c0e          0x4
 .data              0x3c0e          0x2 build/default/production/_ext/1360937237/Lcd.o
                    0x3c0e                  _cntCC
 .data              0x3c10          0x2 build/default/production/_ext/1360937237/TF_FileSys.o

.bss                0x3c12          0xe
 .bss               0x3c12          0x2 build/default/production/_ext/1360937237/Usb_disk.o
                    0x3c12                  _file_id
 .bss               0x3c14          0x2 build/default/production/_ext/1360937237/cmGsmSm.o
                    0x3c14                  _CSQ
 .bss               0x3c16          0x2 c:/program files (x86)/microchip/xc16/v1.20/bin/bin/../../lib\libc-elf.a(errno.eo)
                    0x3c16                  _errno
 .bss               0x3c18          0x2 c:/program files (x86)/microchip/xc16/v1.20/bin/bin/../../lib\libc-elf.a(doscan_cdnopuxX.XXeo)
 .bss               0x3c1a          0x2 c:/program files (x86)/microchip/xc16/v1.20/bin/bin/../../lib\libc-elf.a(doscan_cdfFnopuxX.XXeo)
 .bss               0x3c1c          0x2 c:/program files (x86)/microchip/xc16/v1.20/bin/bin/../../lib\libc-elf.a(doscan_cdfFnopsuxX.XXeo)
 .bss               0x3c1e          0x2 c:/program files (x86)/microchip/xc16/v1.20/bin/bin/../../lib\libc-elf.a(doscan_cdnopsuxX.XXeo)

.const              0xddee        0x15e load address 0x005dee  
 .const             0xddee        0x15e build/default/production/_ext/1360937237/Lcd.o
                    0xddee                  _QR

.text             0x005f4c       0x3580
 .text            0x005f4c       0x13e4 build/default/production/_ext/1360937237/cmGsmSm.o
                  0x005f4c                  _SM_process
                  0x00614c                  _SendBackSM
                  0x006328                  _Make_SM_Head
                  0x006504                  _Merge2Bytes
                  0x0065dc                  _Get_tel_number
                  0x006658                  _GetSM
                  0x0066cc                  _Decode_SM_To_src
                  0x00679c                  _Get_sm_index
                  0x00685c                  _CheckSM
                  0x00688e                  _IsMobileQuerying
                  0x006974                  _DeleteSM
                  0x006998                  _Send_AT_CMGS
                  0x0069e6                  _Reserve_6_bits
                  0x006b6c                  _BinaryVisible
                  0x006bb2                  _SendAT
                  0x006bd6                  _RepeatSM
                  0x006c0c                  _TransmitPARA
                  0x006c9e                  _MobileQueryResponse
                  0x006e68                  _TransmitTitle
                  0x006ea6                  _TransmitValue
                  0x006ef4                  _TransmitHZdigits
                  0x006f56                  _TransmitId
                  0x006f84                  _TransmitVoltage
                  0x006fce                  _TransmitCSQ
                  0x007006                  _TransmitMQuery_head
                  0x00708c                  _Transmit
                  0x0070fe                  _EndSM
                  0x00712c                  _SM_ReportError
                  0x00720a                  _getCSQ
                  0x00728c                  _CSQ_to_UINT
 .text            0x007330       0x10dc build/default/production/_ext/1360937237/Regist.o
                  0x007330                  _SaveMap
                  0x00735c                  _SaveSegs
                  0x007478                  _getPackStr
                  0x0074b8                  _getSLU
                  0x007584                  _getDT
                  0x00762e                  _getDEST
                  0x00763a                  _SkipParaStr
                  0x00768c                  _SaveBlock
                  0x0077d4                  _UpLoadMap
                  0x007950                  _GetStartAddr
                  0x0079b4                  _GetPageSize
                  0x007a08                  _PageSize
                  0x007a34                  _TREG_Authentication
                  0x007aa2                  _getiC0iCx
                  0x007b26                  _TransmitPage
                  0x007c8e                  _TranmitHead
                  0x007d4e                  _Authen
                  0x007e94                  _GetResp
                  0x007ef6                  _Ack
                  0x007f94                  _getXPara
                  0x007f9e                  _DownLoadMap
                  0x0080ec                  _WR_proc
                  0x008216                  _PostDownload
                  0x0082c4                  _DoCfgCRC
                  0x00834e                  _SaveCfg
                  0x00838a                  _CheckSetupAuthority
 .text            0x00840c       0x10c0 build/default/production/_ext/1360937237/TF_main.o
                  0x00840c                  _CardInit
                  0x008454                  _CardMount
                  0x0084fa                  _getShortName
                  0x008578                  _getLongName
                  0x0085fa                  _get_SDCardStartTime
                  0x008692                  _set_CardStartTimeInCfg
                  0x008780                  _getSDCfgLen
                  0x0087a4                  _CreatCxCardFile
                  0x00885a                  _DeltaToSec
                  0x0088ee                  _hTime2Sec
                  0x00899c                  _CardWriteStr
                  0x008c5e                  _CardReadRec
                  0x008d8c                  _InitCardFiles
                  0x008ecc                  _getRecPosition
                  0x008f76                  _ReadSDRecord
                  0x008ffa                  _TFRecord
                  0x009146                  _getRecordStr
                  0x009228                  _TfCardProc
                  0x009240                  _TimeStr2Struct
                  0x009320                  _Gap2Sec
                  0x0093b2                  _ExportCfg2SDCard

.dinit            0x0094cc        0xef6
 .dinit           0x0094cc        0xef6 data_init

.text             0x00a3c2       0xaf36
 .text            0x00a3c2        0xec8 build/default/production/_ext/1360937237/Comm232.o
                  0x00a3c2                  _Serial_Transmit
                  0x00a44e                  _Serial_Setup
                  0x00a49a                  _ClrUErr
                  0x00a4d4                  _InitRx
                  0x00a568                  _Serial_End_Tx
                  0x00a58c                  _RX_BUF0
                  0x00a5b4                  _RX_BUF_END
                  0x00a5dc                  _RS232_on
                  0x00a606                  _RS232_off
                  0x00a630                  _RX_IE
                  0x00a67e                  _TRMT
                  0x00a6cc                  _URXDA
                  0x00a726                  _URXREG
                  0x00a76c                  _getRxPtr
                  0x00a7aa                  _Set_RxPtr
                  0x00a7f0                  _IncPtrRx
                  0x00a83c                  _RX_IE_ON
                  0x00a874                  _RX_IE_OFF
                  0x00a8ae                  _TX_IE
                  0x00a8fc                  _TX_IE_ON
                  0x00a936                  _TX_IE_OFF
                  0x00a970                  _IsComOpen
                  0x00a98c                  _OpenComPort
                  0x00a99e                  _CloseComPort
                  0x00a9b0                  _IPL_URX_INT
                  0x00a9fa                  _SetComTask
                  0x00aa20                  _CLR_RX_IF
                  0x00aa5a                  _CLR_TX_IF
                  0x00aa94                  _ClrRxBuf
                  0x00aaba                  _DoReceive
                  0x00aade                  _InitTx
                  0x00ab86                  _InitAllComTasks
                  0x00ac08                  _InitComTask
                  0x00accc                  _CopyParaStr
                  0x00ad16                  _InitModem_GPRM
                  0x00ad78                  _InitModem_WIFI
                  0x00ad86                  _InitModem_GPRS
                  0x00adfc                  _DetectSetBaud
                  0x00ae90                  _ModemRstIfNeeded
                  0x00aed2                  _getIp
                  0x00af1a                  _getPort
                  0x00af5e                  _IsRingIn
                  0x00af92                  _AT_creg
                  0x00b002                  _IsTransparantOver
                  0x00b042                  _InitCom
                  0x00b084                  _ComMaintenance
                  0x00b154                  _HeartBeat
                  0x00b160                  _NextTask
                  0x00b18e                  _IsStrInStream
 .text            0x00b28a        0xe90 build/default/production/_ext/1360937237/TF_FileSys.o
                  0x00b28a                  _CH376ReadBlock
                  0x00b2ca                  _CH376WriteReqBlock
                  0x00b30a                  _CH376WriteHostBlock
                  0x00b342                  _CH376WriteOfsBlock
                  0x00b382                  _CH376SetFileName
                  0x00b3ca                  _CH376Read32bitDat
                  0x00b420                  _CH376ReadVar8
                  0x00b444                  _CH376WriteVar8
                  0x00b464                  _CH376ReadVar32
                  0x00b47e                  _CH376WriteVar32
                  0x00b4d0                  _CH376EndDirInfo
                  0x00b4dc                  _CH376GetFileSize
                  0x00b4ea                  _CH376GetDiskStatus
                  0x00b4f8                  _CH376GetIntStatus
                  0x00b514                  _Wait376Interrupt
                  0x00b548                  _CH376SendCmdWaitInt
                  0x00b560                  _CH376SendCmdDatWaitInt
                  0x00b580                  _CH376DiskReqSense
                  0x00b59e                  _CH376DiskConnect
                  0x00b5b4                  _CH376DiskMount
                  0x00b5c2                  _CH376FileOpen
                  0x00b5f0                  _CH376FileCreate
                  0x00b60a                  _CH376DirCreate
                  0x00b638                  _CH376SeparatePath
                  0x00b686                  _CH376FileOpenDir
                  0x00b72c                  _CH376FileOpenPath
                  0x00b73e                  _CH376FileCreatePath
                  0x00b790                  _CH376FileErase
                  0x00b808                  _CH376FileClose
                  0x00b81a                  _CH376DirInfoRead
                  0x00b82a                  _CH376DirInfoSave
                  0x00b838                  _CH376ByteLocate
                  0x00b882                  _CH376ByteRead
                  0x00b900                  _CH376ByteWrite
                  0x00b97e                  _CH376DiskCapacity
                  0x00b9b2                  _CH376DiskQuery
                  0x00ba44                  _CH376SecLocate
                  0x00ba86                  _CH376LongNameWrite
                  0x00bb28                  _CH376CheckNameSum
                  0x00bb70                  _CH376LocateInUpDir
                  0x00bc48                  _CH376GetLongName
                  0x00bdc0                  _CH376CreateLongName
 .text            0x00c11a        0xe1a build/default/production/_ext/1360937237/DispKey.o
                  0x00c11a                  _CursorBlink
                  0x00c19a                  _BlinkOff
                  0x00c1d4                  _InitDsp
                  0x00c202                  _StartKeyAD
                  0x00c21a                  _EndKeyPoll
                  0x00c22c                  _KeyProc
                  0x00c26e                  _getKey
                  0x00c294                  _InitCurXY
                  0x00c2ca                  _Write_DspBuf
                  0x00c456                  _LCDShow
                  0x00c526                  _FindRight
                  0x00c62e                  _FindDown
                  0x00c6b8                  _DoKeyFunc
                  0x00c740                  _GetCurDateTime
                  0x00c7ae                  _FormatDateTime
                  0x00c934                  _DT2Str
                  0x00c998                  _Int2DoubleStr
                  0x00c9ec                  _OutputStatus
                  0x00ca40                  _ClrStr
                  0x00ca4e                  _Seg2Str
                  0x00caf2                  _Waiting_CSQ
                  0x00caf8                  _Waiting_BDQ
                  0x00cafe                  _FillSpace
                  0x00cb5c                  _Refresh_bufLCD_Cx
                  0x00ccd8                  _Scroll
                  0x00cdc4                  _DoEditOK
                  0x00cdca                  _DoEditCancel
                  0x00cdd0                  _DigitToggle
                  0x00ce1a                  _DoEditFunc
                  0x00ce7e                  _MarkFunc
                  0x00ced4                  _Editor
 .text            0x00cf34        0xdec build/default/production/_ext/1360937237/Reports.o
                  0x00cf34                  _CMC
                  0x00cf52                  _CMX
                  0x00cf70                  _IntReports
                  0x00d10e                  _FC_Proc
                  0x00d218                  _getChannel
                  0x00d24e                  _IffcRepeated
                  0x00d27e                  _GetINTC
                  0x00d2e2                  _GetFC
                  0x00d340                  _GetComType
                  0x00d3fc                  _TimeFit
                  0x00d520                  _DspFC
                  0x00d586                  _GetComStr
                  0x00d5ea                  _DoGPRS
                  0x00d696                  _DoWifi
                  0x00d76a                  _DoGPRM
                  0x00d884                  _DoBEIDOU
                  0x00d8da                  _DoDIRECT
                  0x00d932                  _DoUsWave
                  0x00d98a                  _DoSM
                  0x00da4c                  _DoReport
                  0x00dc60                  _DelayAfterComm
                  0x00dc7c                  _GetComResp
                  0x00dcc0                  _DIRECT_end
 .text            0x00dd20        0xd44 build/default/production/_ext/1360937237/Sub.o
                  0x00dd20                  _Val
                  0x00dd76                  _X
                  0x00ddca                  _Nops
                  0x00dde4                  _Serial_TransmitHL
                  0x00de04                  _getULNG
                  0x00de42                  _GetCRC
                  0x00de76                  _CheckCRC
                  0x00dee4                  _Delay_s
                  0x00defa                  _Delay_ms
                  0x00df12                  _delay_us
                  0x00df2c                  _pureDelay_ms
                  0x00df42                  _GetMinute
                  0x00df52                  _FillBufWith
                  0x00df7e                  _HexHiByte
                  0x00dfa2                  _HexLoByte
                  0x00dfc2                  _BinOfByte
                  0x00e006                  _Abs
                  0x00e024                  _DataCpy
                  0x00e056                  _IsDataSame
                  0x00e09e                  _DataCpyrom2ram
                  0x00e0d0                  _TimeStampCpy
                  0x00e110                  _Module
                  0x00e140                  _btoa
                  0x00e15a                  _Txt2Bin
                  0x00e1be                  _FloatToStr
                  0x00e372                  _Seg2Float
                  0x00e40e                  _DeCompactBelt
                  0x00e4c4                  _str_to_ram
                  0x00e4ec                  _getC0
                  0x00e508                  _getCX
                  0x00e532                  _IsTimeUp
                  0x00e550                  _GetDefaultValue
                  0x00e5b6                  _InStr
                  0x00e65e                  _InStrChar
                  0x00e698                  _ValueHex
                  0x00e6c4                  _ValueHex2
                  0x00e6f8                  _WriteCfg
                  0x00e716                  _MsgBox
                  0x00e72c                  _GetByte
                  0x00e74c                  _ReadCount
                  0x00e786                  _WriteCount
                  0x00e7ac                  _IncCount
                  0x00e7c8                  _ClrByte
                  0x00e7ec                  _ClrCfgBit
                  0x00e826                  _SetCfgBit
                  0x00e854                  _Split
                  0x00e8be                  _TransmitStr
                  0x00e8dc                  _TransmitBytes
                  0x00e8fe                  _ResetPeri
                  0x00e98a                  _IsSensorReady
                  0x00e996                  _ResetSensor
                  0x00e9a8                  _Restart
                  0x00e9b8                  _FindParaStr
                  0x00e9e4                  _set_RecordStartTime
                  0x00ea2e                  _get_RecordStartTime
 .text            0x00ea64        0xcde build/default/production/_ext/1360937237/In_Sensor.o
                  0x00ea64                  _InitInnerSensor
                  0x00ea86                  _IncRain
                  0x00eac4                  _UserBelt
                  0x00eb4c                  _getCOMx
                  0x00eb7c                  _PutCxInBelt
                  0x00ed02                  _EventRain
                  0x00ed8a                  _getCmpType
                  0x00ee08                  _getVal_ULNG
                  0x00ee5e                  _getVal_FLOAT
                  0x00eebe                  _CompareUL
                  0x00ef98                  _CompareFLOAT
                  0x00f04e                  _EventCondition
                  0x00f0e6                  _beltRain
                  0x00f19a                  _beltEncoder
                  0x00f234                  _getRightMinute
                  0x00f270                  _getRightHour
                  0x00f2b0                  _getRightDay
                  0x00f2f4                  _usrSensorRecord
                  0x00f408                  _ReadEncoder
                  0x00f49a                  _LevelCoder
                  0x00f55c                  _Shift8bits
                  0x00f59c                  _GracodeToBinary
                  0x00f5f0                  _GetSlopeCo
                  0x00f666                  _ReadEncoderPolarity
                  0x00f67e                  _usrProc
 .text            0x00f742        0xc38 build/default/production/_ext/1360937237/Record.o
                  0x00f742                  _InitRecord
                  0x00f84e                  _getRecPtrAddr
                  0x00f88e                  _MarkBF
                  0x00f8d0                  _DoRecord
                  0x00faf8                  _RepeatInc_Save
                  0x00fc12                  _IsValEqual
                  0x00fc54                  _SkipRepeatToVal
                  0x00fd24                  _AppendNewRec
                  0x00fdb4                  _SaveARec
                  0x00fe84                  _SaveRecPtr
                  0x00fed6                  _RecordRecovery
                  0x00ff74                  _WriteRecBlock
                  0x00ffdc                  _CheckSucessive
                  0x0100fe                  _Reverse
                  0x010146                  _CompareTime
                  0x0101d6                  _IsRecTimeMatched
                  0x0102c8                  _getRecPtr
                  0x010340                  _InitCardRecord
 .text            0x01037a        0xb36 build/default/production/_ext/1360937237/Usb_disk.o
                  0x01037a                  _UARTSendPkt
                  0x0103a2                  _UARTSendByte
                  0x0103f6                  _GetFileName
                  0x010482                  _SetHostBaudrate
                  0x0104f6                  _OpenUSBDisk
                  0x01054e                  _CloseDisk
                  0x0105a6                  _CreatFile
                  0x010670                  _GetUsbDiskResp
                  0x010714                  _WriteFile
                  0x01074a                  _CloseFile
                  0x0107da                  _ExportAllRecords
                  0x0108da                  _WriteTitle
                  0x010936                  _GetUFileSegTitle
                  0x010a38                  _ExportCxRec
                  0x010b30                  _ProgressBar
                  0x010b6a                  _ExportOnePage
                  0x010c86                  _ExportCfg
                  0x010cce                  _SaveToUsbDisk
 .text            0x010eb0        0x948 build/default/production/_ext/1360937237/Calendar.o
                  0x010eb0                  _SaveTimeTo
                  0x010ee2                  _RestoreTimeFrom
                  0x010f1e                  _InitCalendar
                  0x010f5a                  _CheckCalendar
                  0x010f8e                  _Now
                  0x0110be                  _WriteCalendar
                  0x0111a2                  _DayEnd
                  0x0111cc                  _AddMinute
                  0x01121e                  _AddHour
                  0x01126a                  _AddDay
                  0x011320                  _AddInterval
                  0x011384                  _UpdateCalendar
                  0x0113c0                  _CleanDateTime
                  0x01141a                  _CalendarAutoAdjust
                  0x011572                  _IsSpaned
                  0x0115e2                  _CalendarProc
                  0x0116d2                  _RecordBelts
                  0x0117ee                  _end_CalendarProc
 .text            0x0117f8        0x896 build/default/production/_ext/1360937237/In_Setup.o
                  0x0117f8                  _Setup_SensorIn
                  0x011978                  _SavePort1Cfg
                  0x011aaa                  _LoadSensorSwitch
                  0x011b32                  _CheckDigits
                  0x011b8c                  _LoadRainAlarm
                  0x011c0c                  _LoadLevelAlarm
                  0x011cb0                  _LoadSlopeCo
                  0x011d46                  _LoadEncodePolarity
                  0x011dbc                  _SaveSensorSwitch
                  0x011e8e                  _SaveRainAlarm
                  0x011ede                  _SaveLevelAlarm
                  0x011f5a                  _SaveSlopeCo
                  0x011ffc                  _SaveEncodePolarity
 .text            0x01208e        0x790 build/default/production/_ext/1360937237/MakeMsg.o
                  0x012654                  _MakeMsg
                  0x012784                  _MakeTextMsg
 .text            0x01281e        0x53c build/default/production/_ext/1360937237/Lcd.o
                  0x01281e                  _PW_LCD_on
                  0x01283e                  _PW_LCD_off
                  0x01284e                  _lcd_init
                  0x012888                  _lcd_clear
                  0x012920                  _blight_on
                  0x0129c4                  _blight_off
                  0x012a68                  _lcd_puts
                  0x012b46                  _lcd_stable
                  0x012bd4                  _cursor_off
                  0x012bda                  _lcd_ack
                  0x012c5e                  _lcd_DrawQRCode
 .text            0x012d5a        0x4b0 build/default/production/_ext/1360937237/Init.o
                  0x012d5a                  _UART1Init
                  0x012dd4                  _UART2Init
                  0x012e4e                  _UART3Init
                  0x012ec8                  _UART4Init
                  0x012f3e                  _InitINTx
                  0x012f90                  _InitCN
                  0x012fa6                  _InitCPU
                  0x013042                  _Timer1_Init_Function
                  0x013066                  _Timer2_on
                  0x01307e                  _Timer2_off
                  0x013088                  _InitIPL
                  0x0130da                  _SetIPL
 .text            0x01320a        0x476 build/default/production/_ext/1360937237/Spi.o
                  0x01320a                  _spi_WriteByte
                  0x013246                  _spi_ReadByte
                  0x013286                  _mem_WriteEnable
                  0x013296                  _mem_WriteDisable
                  0x0132a6                  _mem_ReadStatus
                  0x0132c2                  _mem_WriteStatus
                  0x0132da                  _xm_SectorErase
                  0x013310                  _mem_ReadData
                  0x0133c2                  _FramLock
                  0x0133d8                  _FramUnlock
                  0x0133ea                  _mem_WriteData
                  0x0134c4                  _mem_CheckWriting
                  0x013556                  _WaitMemReady
                  0x013574                  _WaitXmReadyForErase
                  0x0135a4                  _WaitMemReadyForErase
                  0x0135d6                  _cs
                  0x013608                  _cd
                  0x013620                  _ReadRecArray
 .text            0x013680        0x446 build/default/production/_ext/1360937237/cmBeidou.o
                  0x013680                  _BEIDOU_Transmit
                  0x0137c6                  _BEIDOU_Chk
                  0x0137fe                  _BEIDOU_TimeAutoAdjust
                  0x01383c                  _BEIDOU_GetTime
                  0x013938                  _Is_BEIDOU_Ready
                  0x01397a                  _BEIDOU_ok
                  0x013a3c                  _getBDQ
                  0x013ab6                  _BDQ_to_UINT
 .text            0x013ac6        0x40e build/default/production/_ext/1360937237/SerialSensor.o
                  0x013ac6                  _CheckNIHAO
                  0x013b42                  _RxFromSensor_NIHAO
                  0x013b9a                  _IsException
                  0x013bce                  _NIHAO2Belt
                  0x013cce                  _RxFromSensor
                  0x013de0                  _RWSerialSensor
 .text            0x013ed4        0x39c build/default/production/_ext/1360937237/In_Sys.o
                  0x013ed4                  _BeltBeRead
                  0x014050                  _BELTs
                  0x0140f2                  _Val2BELT
                  0x014132                  _DoCompact
                  0x0141d6                  _BitMask
                  0x014212                  _LenOfBits
 .text            0x014270        0x310 build/default/production/_ext/1360937237/DS18B20.o
                  0x014270                  _tickDelay
                  0x01428a                  _SetSpeed
                  0x0142b8                  _TouchReset
                  0x0142fa                  _WriteBit
                  0x01432c                  _ReadBit
                  0x014368                  _WriteByte
                  0x01438c                  _ReadByte
                  0x0143c0                  _DS18B20_ReadROM
                  0x0143fa                  _DS18B20_ReadTemp
                  0x014450                  _CRC8_1BIT
                  0x0144c8                  _ReadID
                  0x0144f8                  _ReadTemp
 .text            0x014580        0x2e0 build/default/production/_ext/1360937237/TF_Ch376Func.o
                  0x014580                  _Init_SPI_ch376
                  0x0145b8                  _vLedTest_ms
                  0x0145ca                  _vLedTest_s
                  0x0145d8                  _mStopIfError
                  0x0146d4                  _CH376_PORT_INIT
                  0x0146de                  _spi_WriteByte_ch376
                  0x01471a                  _spi_ReadByte_ch376
                  0x014758                  _xEndCH376Cmd
                  0x014760                  _xWriteCH376Cmd
                  0x01477c                  _xWriteCH376Data
                  0x01478e                  _xReadCH376Data
                  0x0147a0                  _Query376Interrupt
                  0x0147b6                  _mInitCH376Host
                  0x014800                  _CH376_Reset
                  0x01482c                  _CH376_SleepEnable
 .text            0x014860        0x2c0 build/default/production/_ext/1360937237/ReadPort.o
                  0x014860                  _ReadPort
                  0x01496e                  _InstWrite
                  0x014a32                  _ReadSerialPort23
                  0x014aa4                  _IsC0Alive
                  0x014aea                  _SetC0Dead
                  0x014af8                  _KillC0s
 .text            0x014b20        0x25a build/default/production/_ext/1360937237/R4571.o
                  0x014b20                  _R4571_init
                  0x014b30                  _R4571_WriteByte
                  0x014b72                  _R4571_ReadByte
                  0x014bb0                  _R4571_Write_Data
                  0x014c86                  _R4571_Read_Data
 .text            0x014d7a        0x226 build/default/production/_ext/1360937237/cmGprs.o
                  0x014d7a                  _GPRS_transmit
                  0x014da0                  _GPRS_end
                  0x014e28                  _GetGprsResp
                  0x014e80                  _CheckGprsResp
                  0x014edc                  _ConnectTcpServer
                  0x014f2a                  _GPRM_end
                  0x014f52                  _XModemRet
 .text            0x014fa0        0x136 build/default/production/_ext/1360937237/Power.o
                  0x014fa0                  _PowerRestore
                  0x014fb4                  _CheckVoltage
                  0x014fe0                  _DspVoltageWarning
                  0x015046                  _PowerTrap
                  0x0150c0                  _isWDTWU
 .text            0x0150d6        0x120 build/default/production/_ext/1360937237/cmWifi.o
                  0x0150d6                  _WifiConnection
 .text            0x0151f6         0xf8 build/default/production/_ext/1360937237/Adc.o
                  0x0151f6                  _initAdc1
                  0x015242                  _initAdcKey
                  0x01528e                  _initTmr3
                  0x0152a2                  _VoltageNow
 .text            0x0152ee          0xa build/default/production/_ext/1360937237/DEBUG.o
                  0x0152ee                  _DEBUG
